
LCD_Termometr.elf:     file format elf32-avr

Sections:
Idx Name          Size      VMA       LMA       File off  Algn
  0 .data         0000005e  00800100  00002030  000020c4  2**0
                  CONTENTS, ALLOC, LOAD, DATA
  1 .text         00002030  00000000  00000000  00000094  2**1
                  CONTENTS, ALLOC, LOAD, READONLY, CODE
  2 .bss          00000268  0080015e  0080015e  00002122  2**0
                  ALLOC
  3 .comment      0000008c  00000000  00000000  00002122  2**0
                  CONTENTS, READONLY
  4 .note.gnu.avr.deviceinfo 00000040  00000000  00000000  000021b0  2**2
                  CONTENTS, READONLY
  5 .debug_aranges 000002a0  00000000  00000000  000021f0  2**0
                  CONTENTS, READONLY, DEBUGGING
  6 .debug_info   00004207  00000000  00000000  00002490  2**0
                  CONTENTS, READONLY, DEBUGGING
  7 .debug_abbrev 00000eaf  00000000  00000000  00006697  2**0
                  CONTENTS, READONLY, DEBUGGING
  8 .debug_line   00001071  00000000  00000000  00007546  2**0
                  CONTENTS, READONLY, DEBUGGING
  9 .debug_frame  00000874  00000000  00000000  000085b8  2**2
                  CONTENTS, READONLY, DEBUGGING
 10 .debug_str    00000ca8  00000000  00000000  00008e2c  2**0
                  CONTENTS, READONLY, DEBUGGING
 11 .debug_loc    000031c3  00000000  00000000  00009ad4  2**0
                  CONTENTS, READONLY, DEBUGGING
 12 .debug_ranges 00000338  00000000  00000000  0000cc97  2**0
                  CONTENTS, READONLY, DEBUGGING

Disassembly of section .text:

00000000 <__vectors>:
       0:	0c 94 25 02 	jmp	0x44a	; 0x44a <__ctors_end>
       4:	0c 94 42 02 	jmp	0x484	; 0x484 <__bad_interrupt>
       8:	0c 94 42 02 	jmp	0x484	; 0x484 <__bad_interrupt>
       c:	0c 94 42 02 	jmp	0x484	; 0x484 <__bad_interrupt>
      10:	0c 94 42 02 	jmp	0x484	; 0x484 <__bad_interrupt>
      14:	0c 94 42 02 	jmp	0x484	; 0x484 <__bad_interrupt>
      18:	0c 94 42 02 	jmp	0x484	; 0x484 <__bad_interrupt>
      1c:	0c 94 42 02 	jmp	0x484	; 0x484 <__bad_interrupt>
      20:	0c 94 42 02 	jmp	0x484	; 0x484 <__bad_interrupt>
      24:	0c 94 42 02 	jmp	0x484	; 0x484 <__bad_interrupt>
      28:	0c 94 42 02 	jmp	0x484	; 0x484 <__bad_interrupt>
      2c:	0c 94 42 02 	jmp	0x484	; 0x484 <__bad_interrupt>
      30:	0c 94 42 02 	jmp	0x484	; 0x484 <__bad_interrupt>
      34:	0c 94 42 02 	jmp	0x484	; 0x484 <__bad_interrupt>
      38:	0c 94 42 02 	jmp	0x484	; 0x484 <__bad_interrupt>
      3c:	0c 94 42 02 	jmp	0x484	; 0x484 <__bad_interrupt>
      40:	0c 94 ec 0c 	jmp	0x19d8	; 0x19d8 <__vector_16>
      44:	0c 94 42 02 	jmp	0x484	; 0x484 <__bad_interrupt>
      48:	0c 94 42 02 	jmp	0x484	; 0x484 <__bad_interrupt>
      4c:	0c 94 42 02 	jmp	0x484	; 0x484 <__bad_interrupt>
      50:	0c 94 42 02 	jmp	0x484	; 0x484 <__bad_interrupt>
      54:	0c 94 42 02 	jmp	0x484	; 0x484 <__bad_interrupt>
      58:	0c 94 42 02 	jmp	0x484	; 0x484 <__bad_interrupt>
      5c:	0c 94 42 02 	jmp	0x484	; 0x484 <__bad_interrupt>
      60:	0c 94 29 06 	jmp	0xc52	; 0xc52 <__vector_24>
      64:	0c 94 42 02 	jmp	0x484	; 0x484 <__bad_interrupt>
      68:	06 05       	cpc	r16, r6
      6a:	23 05       	cpc	r18, r3
      6c:	33 05       	cpc	r19, r3
      6e:	54 05       	cpc	r21, r4
      70:	70 05       	cpc	r23, r0
      72:	86 05       	cpc	r24, r6
      74:	a7 05       	cpc	r26, r7
      76:	ca 05       	cpc	r28, r10
      78:	e0 05       	cpc	r30, r0
      7a:	03 06       	cpc	r0, r19
      7c:	45 06       	cpc	r4, r21
      7e:	94 06       	cpc	r9, r20
      80:	94 06       	cpc	r9, r20
      82:	94 06       	cpc	r9, r20
      84:	94 06       	cpc	r9, r20
      86:	94 06       	cpc	r9, r20
      88:	94 06       	cpc	r9, r20
      8a:	94 06       	cpc	r9, r20
      8c:	45 06       	cpc	r4, r21
      8e:	94 06       	cpc	r9, r20
      90:	94 06       	cpc	r9, r20
      92:	94 06       	cpc	r9, r20
      94:	94 06       	cpc	r9, r20
      96:	94 06       	cpc	r9, r20
      98:	94 06       	cpc	r9, r20
      9a:	94 06       	cpc	r9, r20
      9c:	47 06       	cpc	r4, r23
      9e:	94 06       	cpc	r9, r20
      a0:	94 06       	cpc	r9, r20
      a2:	94 06       	cpc	r9, r20
      a4:	94 06       	cpc	r9, r20
      a6:	94 06       	cpc	r9, r20
      a8:	94 06       	cpc	r9, r20
      aa:	94 06       	cpc	r9, r20
      ac:	94 06       	cpc	r9, r20
      ae:	94 06       	cpc	r9, r20
      b0:	94 06       	cpc	r9, r20
      b2:	94 06       	cpc	r9, r20
      b4:	94 06       	cpc	r9, r20
      b6:	94 06       	cpc	r9, r20
      b8:	94 06       	cpc	r9, r20
      ba:	94 06       	cpc	r9, r20
      bc:	47 06       	cpc	r4, r23
      be:	94 06       	cpc	r9, r20
      c0:	94 06       	cpc	r9, r20
      c2:	94 06       	cpc	r9, r20
      c4:	94 06       	cpc	r9, r20
      c6:	94 06       	cpc	r9, r20
      c8:	94 06       	cpc	r9, r20
      ca:	94 06       	cpc	r9, r20
      cc:	94 06       	cpc	r9, r20
      ce:	94 06       	cpc	r9, r20
      d0:	94 06       	cpc	r9, r20
      d2:	94 06       	cpc	r9, r20
      d4:	94 06       	cpc	r9, r20
      d6:	94 06       	cpc	r9, r20
      d8:	94 06       	cpc	r9, r20
      da:	94 06       	cpc	r9, r20
      dc:	90 06       	cpc	r9, r16
      de:	94 06       	cpc	r9, r20
      e0:	94 06       	cpc	r9, r20
      e2:	94 06       	cpc	r9, r20
      e4:	94 06       	cpc	r9, r20
      e6:	94 06       	cpc	r9, r20
      e8:	94 06       	cpc	r9, r20
      ea:	94 06       	cpc	r9, r20
      ec:	6f 06       	cpc	r6, r31
      ee:	94 06       	cpc	r9, r20
      f0:	94 06       	cpc	r9, r20
      f2:	94 06       	cpc	r9, r20
      f4:	94 06       	cpc	r9, r20
      f6:	94 06       	cpc	r9, r20
      f8:	94 06       	cpc	r9, r20
      fa:	94 06       	cpc	r9, r20
      fc:	94 06       	cpc	r9, r20
      fe:	94 06       	cpc	r9, r20
     100:	94 06       	cpc	r9, r20
     102:	94 06       	cpc	r9, r20
     104:	94 06       	cpc	r9, r20
     106:	94 06       	cpc	r9, r20
     108:	94 06       	cpc	r9, r20
     10a:	94 06       	cpc	r9, r20
     10c:	63 06       	cpc	r6, r19
     10e:	94 06       	cpc	r9, r20
     110:	94 06       	cpc	r9, r20
     112:	94 06       	cpc	r9, r20
     114:	94 06       	cpc	r9, r20
     116:	94 06       	cpc	r9, r20
     118:	94 06       	cpc	r9, r20
     11a:	94 06       	cpc	r9, r20
     11c:	81 06       	cpc	r8, r17

0000011e <__trampolines_end>:
     11e:	00 00       	nop
     120:	00 00       	nop
     122:	00 00       	nop
     124:	00 5f       	subi	r16, 0xF0	; 240
     126:	00 00       	nop
     128:	00 07       	cpc	r16, r16
     12a:	00 07       	cpc	r16, r16
     12c:	00 14       	cp	r0, r0
     12e:	7f 14       	cp	r7, r15
     130:	7f 14       	cp	r7, r15
     132:	24 2a       	or	r2, r20
     134:	7f 2a       	or	r7, r31
     136:	12 4c       	sbci	r17, 0xC2	; 194
     138:	2c 10       	cpse	r2, r12
     13a:	68 64       	ori	r22, 0x48	; 72
     13c:	36 49       	sbci	r19, 0x96	; 150
     13e:	55 22       	and	r5, r21
     140:	50 00       	.word	0x0050	; ????
     142:	05 03       	mulsu	r16, r21
     144:	00 00       	nop
     146:	00 1c       	adc	r0, r0
     148:	22 41       	sbci	r18, 0x12	; 18
     14a:	00 00       	nop
     14c:	41 22       	and	r4, r17
     14e:	1c 00       	.word	0x001c	; ????
     150:	14 08       	sbc	r1, r4
     152:	3e 08       	sbc	r3, r14
     154:	14 08       	sbc	r1, r4
     156:	08 3e       	cpi	r16, 0xE8	; 232
     158:	08 08       	sbc	r0, r8
     15a:	00 00       	nop
     15c:	50 30       	cpi	r21, 0x00	; 0
     15e:	00 10       	cpse	r0, r0
     160:	10 10       	cpse	r1, r0
     162:	10 10       	cpse	r1, r0
     164:	00 60       	ori	r16, 0x00	; 0
     166:	60 00       	.word	0x0060	; ????
     168:	00 20       	and	r0, r0
     16a:	10 08       	sbc	r1, r0
     16c:	04 02       	muls	r16, r20
     16e:	3e 51       	subi	r19, 0x1E	; 30
     170:	49 45       	sbci	r20, 0x59	; 89
     172:	3e 00       	.word	0x003e	; ????
     174:	42 7f       	andi	r20, 0xF2	; 242
     176:	40 00       	.word	0x0040	; ????
     178:	42 61       	ori	r20, 0x12	; 18
     17a:	51 49       	sbci	r21, 0x91	; 145
     17c:	46 21       	and	r20, r6
     17e:	41 45       	sbci	r20, 0x51	; 81
     180:	4b 31       	cpi	r20, 0x1B	; 27
     182:	18 14       	cp	r1, r8
     184:	12 7f       	andi	r17, 0xF2	; 242
     186:	10 27       	eor	r17, r16
     188:	45 45       	sbci	r20, 0x55	; 85
     18a:	45 39       	cpi	r20, 0x95	; 149
     18c:	3c 4a       	sbci	r19, 0xAC	; 172
     18e:	49 49       	sbci	r20, 0x99	; 153
     190:	30 01       	movw	r6, r0
     192:	71 09       	sbc	r23, r1
     194:	05 03       	mulsu	r16, r21
     196:	36 49       	sbci	r19, 0x96	; 150
     198:	49 49       	sbci	r20, 0x99	; 153
     19a:	36 06       	cpc	r3, r22
     19c:	49 49       	sbci	r20, 0x99	; 153
     19e:	29 1e       	adc	r2, r25
     1a0:	00 36       	cpi	r16, 0x60	; 96
     1a2:	36 00       	.word	0x0036	; ????
     1a4:	00 00       	nop
     1a6:	56 36       	cpi	r21, 0x66	; 102
     1a8:	00 00       	nop
     1aa:	08 14       	cp	r0, r8
     1ac:	22 41       	sbci	r18, 0x12	; 18
     1ae:	00 14       	cp	r0, r0
     1b0:	14 14       	cp	r1, r4
     1b2:	14 14       	cp	r1, r4
     1b4:	00 41       	sbci	r16, 0x10	; 16
     1b6:	22 14       	cp	r2, r2
     1b8:	08 02       	muls	r16, r24
     1ba:	01 51       	subi	r16, 0x11	; 17
     1bc:	09 06       	cpc	r0, r25
     1be:	32 49       	sbci	r19, 0x92	; 146
     1c0:	79 41       	sbci	r23, 0x19	; 25
     1c2:	3e 7e       	andi	r19, 0xEE	; 238
     1c4:	11 11       	cpse	r17, r1
     1c6:	11 7e       	andi	r17, 0xE1	; 225
     1c8:	7f 49       	sbci	r23, 0x9F	; 159
     1ca:	49 49       	sbci	r20, 0x99	; 153
     1cc:	36 3e       	cpi	r19, 0xE6	; 230
     1ce:	41 41       	sbci	r20, 0x11	; 17
     1d0:	41 22       	and	r4, r17
     1d2:	7f 41       	sbci	r23, 0x1F	; 31
     1d4:	41 22       	and	r4, r17
     1d6:	1c 7f       	andi	r17, 0xFC	; 252
     1d8:	49 49       	sbci	r20, 0x99	; 153
     1da:	49 41       	sbci	r20, 0x19	; 25
     1dc:	7f 09       	sbc	r23, r15
     1de:	09 09       	sbc	r16, r9
     1e0:	01 3e       	cpi	r16, 0xE1	; 225
     1e2:	41 49       	sbci	r20, 0x91	; 145
     1e4:	49 7a       	andi	r20, 0xA9	; 169
     1e6:	7f 08       	sbc	r7, r15
     1e8:	08 08       	sbc	r0, r8
     1ea:	7f 00       	.word	0x007f	; ????
     1ec:	41 7f       	andi	r20, 0xF1	; 241
     1ee:	41 00       	.word	0x0041	; ????
     1f0:	20 40       	sbci	r18, 0x00	; 0
     1f2:	41 3f       	cpi	r20, 0xF1	; 241
     1f4:	01 7f       	andi	r16, 0xF1	; 241
     1f6:	08 14       	cp	r0, r8
     1f8:	22 41       	sbci	r18, 0x12	; 18
     1fa:	7f 40       	sbci	r23, 0x0F	; 15
     1fc:	40 40       	sbci	r20, 0x00	; 0
     1fe:	40 7f       	andi	r20, 0xF0	; 240
     200:	02 0c       	add	r0, r2
     202:	02 7f       	andi	r16, 0xF2	; 242
     204:	7f 04       	cpc	r7, r15
     206:	08 10       	cpse	r0, r8
     208:	7f 3e       	cpi	r23, 0xEF	; 239
     20a:	41 41       	sbci	r20, 0x11	; 17
     20c:	41 3e       	cpi	r20, 0xE1	; 225
     20e:	7f 09       	sbc	r23, r15
     210:	09 09       	sbc	r16, r9
     212:	06 3e       	cpi	r16, 0xE6	; 230
     214:	41 51       	subi	r20, 0x11	; 17
     216:	21 5e       	subi	r18, 0xE1	; 225
     218:	7f 09       	sbc	r23, r15
     21a:	19 29       	or	r17, r9
     21c:	46 46       	sbci	r20, 0x66	; 102
     21e:	49 49       	sbci	r20, 0x99	; 153
     220:	49 31       	cpi	r20, 0x19	; 25
     222:	01 01       	movw	r0, r2
     224:	7f 01       	movw	r14, r30
     226:	01 3f       	cpi	r16, 0xF1	; 241
     228:	40 40       	sbci	r20, 0x00	; 0
     22a:	40 3f       	cpi	r20, 0xF0	; 240
     22c:	1f 20       	and	r1, r15
     22e:	40 20       	and	r4, r0
     230:	1f 3f       	cpi	r17, 0xFF	; 255
     232:	40 38       	cpi	r20, 0x80	; 128
     234:	40 3f       	cpi	r20, 0xF0	; 240
     236:	63 14       	cp	r6, r3
     238:	08 14       	cp	r0, r8
     23a:	63 07       	cpc	r22, r19
     23c:	08 70       	andi	r16, 0x08	; 8
     23e:	08 07       	cpc	r16, r24
     240:	61 51       	subi	r22, 0x11	; 17
     242:	49 45       	sbci	r20, 0x59	; 89
     244:	43 00       	.word	0x0043	; ????
     246:	7f 41       	sbci	r23, 0x1F	; 31
     248:	41 00       	.word	0x0041	; ????
     24a:	02 04       	cpc	r0, r2
     24c:	08 10       	cpse	r0, r8
     24e:	20 00       	.word	0x0020	; ????
     250:	41 41       	sbci	r20, 0x11	; 17
     252:	7f 00       	.word	0x007f	; ????
     254:	04 02       	muls	r16, r20
     256:	01 02       	muls	r16, r17
     258:	04 40       	sbci	r16, 0x04	; 4
     25a:	40 40       	sbci	r20, 0x00	; 0
     25c:	40 40       	sbci	r20, 0x00	; 0
     25e:	00 01       	movw	r0, r0
     260:	02 04       	cpc	r0, r2
     262:	00 20       	and	r0, r0
     264:	54 54       	subi	r21, 0x44	; 68
     266:	54 78       	andi	r21, 0x84	; 132
     268:	7f 48       	sbci	r23, 0x8F	; 143
     26a:	44 44       	sbci	r20, 0x44	; 68
     26c:	38 38       	cpi	r19, 0x88	; 136
     26e:	44 44       	sbci	r20, 0x44	; 68
     270:	44 20       	and	r4, r4
     272:	38 44       	sbci	r19, 0x48	; 72
     274:	44 48       	sbci	r20, 0x84	; 132
     276:	7f 38       	cpi	r23, 0x8F	; 143
     278:	54 54       	subi	r21, 0x44	; 68
     27a:	54 18       	sub	r5, r4
     27c:	08 7e       	andi	r16, 0xE8	; 232
     27e:	09 01       	movw	r0, r18
     280:	02 0c       	add	r0, r2
     282:	52 52       	subi	r21, 0x22	; 34
     284:	52 3e       	cpi	r21, 0xE2	; 226
     286:	7f 08       	sbc	r7, r15
     288:	04 04       	cpc	r0, r4
     28a:	78 00       	.word	0x0078	; ????
     28c:	44 7d       	andi	r20, 0xD4	; 212
     28e:	40 00       	.word	0x0040	; ????
     290:	20 40       	sbci	r18, 0x00	; 0
     292:	44 3d       	cpi	r20, 0xD4	; 212
     294:	00 7f       	andi	r16, 0xF0	; 240
     296:	10 28       	or	r1, r0
     298:	44 00       	.word	0x0044	; ????
     29a:	00 41       	sbci	r16, 0x10	; 16
     29c:	7f 40       	sbci	r23, 0x0F	; 15
     29e:	00 7c       	andi	r16, 0xC0	; 192
     2a0:	04 18       	sub	r0, r4
     2a2:	04 78       	andi	r16, 0x84	; 132
     2a4:	7c 08       	sbc	r7, r12
     2a6:	04 04       	cpc	r0, r4
     2a8:	78 38       	cpi	r23, 0x88	; 136
     2aa:	44 44       	sbci	r20, 0x44	; 68
     2ac:	44 38       	cpi	r20, 0x84	; 132
     2ae:	7c 14       	cp	r7, r12
     2b0:	14 14       	cp	r1, r4
     2b2:	08 08       	sbc	r0, r8
     2b4:	14 14       	cp	r1, r4
     2b6:	18 7c       	andi	r17, 0xC8	; 200
     2b8:	7c 08       	sbc	r7, r12
     2ba:	04 04       	cpc	r0, r4
     2bc:	08 48       	sbci	r16, 0x88	; 136
     2be:	54 54       	subi	r21, 0x44	; 68
     2c0:	54 20       	and	r5, r4
     2c2:	04 3f       	cpi	r16, 0xF4	; 244
     2c4:	44 40       	sbci	r20, 0x04	; 4
     2c6:	20 3c       	cpi	r18, 0xC0	; 192
     2c8:	40 40       	sbci	r20, 0x00	; 0
     2ca:	20 7c       	andi	r18, 0xC0	; 192
     2cc:	1c 20       	and	r1, r12
     2ce:	40 20       	and	r4, r0
     2d0:	1c 3c       	cpi	r17, 0xCC	; 204
     2d2:	40 30       	cpi	r20, 0x00	; 0
     2d4:	40 3c       	cpi	r20, 0xC0	; 192
     2d6:	44 28       	or	r4, r4
     2d8:	10 28       	or	r1, r0
     2da:	44 0c       	add	r4, r4
     2dc:	50 50       	subi	r21, 0x00	; 0
     2de:	50 3c       	cpi	r21, 0xC0	; 192
     2e0:	44 64       	ori	r20, 0x44	; 68
     2e2:	54 4c       	sbci	r21, 0xC4	; 196
     2e4:	44 00       	.word	0x0044	; ????
     2e6:	08 36       	cpi	r16, 0x68	; 104
     2e8:	41 00       	.word	0x0041	; ????
     2ea:	00 00       	nop
     2ec:	7f 00       	.word	0x007f	; ????
     2ee:	00 00       	nop
     2f0:	41 36       	cpi	r20, 0x61	; 97
     2f2:	08 00       	.word	0x0008	; ????
     2f4:	08 04       	cpc	r0, r8
     2f6:	08 10       	cpse	r0, r8
     2f8:	08 ff       	.word	0xff08	; ????
     2fa:	ff ff       	.word	0xffff	; ????
     2fc:	ff ff       	.word	0xffff	; ????
     2fe:	7c 12       	cpse	r7, r28
     300:	11 12       	cpse	r1, r17
     302:	7c 7f       	andi	r23, 0xFC	; 252
     304:	49 49       	sbci	r20, 0x99	; 153
     306:	49 31       	cpi	r20, 0x19	; 25
     308:	7f 49       	sbci	r23, 0x9F	; 159
     30a:	49 49       	sbci	r20, 0x99	; 153
     30c:	36 7f       	andi	r19, 0xF6	; 246
     30e:	01 01       	movw	r0, r2
     310:	01 01       	movw	r0, r2
     312:	60 3f       	cpi	r22, 0xF0	; 240
     314:	21 3f       	cpi	r18, 0xF1	; 241
     316:	60 7f       	andi	r22, 0xF0	; 240
     318:	49 49       	sbci	r20, 0x99	; 153
     31a:	49 41       	sbci	r20, 0x19	; 25
     31c:	77 08       	sbc	r7, r7
     31e:	7f 08       	sbc	r7, r15
     320:	77 22       	and	r7, r23
     322:	41 49       	sbci	r20, 0x91	; 145
     324:	49 36       	cpi	r20, 0x69	; 105
     326:	7f 10       	cpse	r7, r15
     328:	08 04       	cpc	r0, r8
     32a:	7f 7e       	andi	r23, 0xEF	; 239
     32c:	10 09       	sbc	r17, r0
     32e:	04 7e       	andi	r16, 0xE4	; 228
     330:	7f 08       	sbc	r7, r15
     332:	14 22       	and	r1, r20
     334:	41 40       	sbci	r20, 0x01	; 1
     336:	3e 01       	movw	r6, r28
     338:	01 7f       	andi	r16, 0xF1	; 241
     33a:	7f 02       	muls	r23, r31
     33c:	0c 02       	muls	r16, r28
     33e:	7f 7f       	andi	r23, 0xFF	; 255
     340:	08 08       	sbc	r0, r8
     342:	08 7f       	andi	r16, 0xF8	; 248
     344:	3e 41       	sbci	r19, 0x1E	; 30
     346:	41 41       	sbci	r20, 0x11	; 17
     348:	3e 7f       	andi	r19, 0xFE	; 254
     34a:	01 01       	movw	r0, r2
     34c:	01 7f       	andi	r16, 0xF1	; 241
     34e:	7f 09       	sbc	r23, r15
     350:	09 09       	sbc	r16, r9
     352:	06 3e       	cpi	r16, 0xE6	; 230
     354:	41 41       	sbci	r20, 0x11	; 17
     356:	41 22       	and	r4, r17
     358:	01 01       	movw	r0, r2
     35a:	7f 01       	movw	r14, r30
     35c:	01 07       	cpc	r16, r17
     35e:	48 48       	sbci	r20, 0x88	; 136
     360:	48 3f       	cpi	r20, 0xF8	; 248
     362:	0e 11       	cpse	r16, r14
     364:	7f 11       	cpse	r23, r15
     366:	0e 63       	ori	r16, 0x3E	; 62
     368:	14 08       	sbc	r1, r4
     36a:	14 63       	ori	r17, 0x34	; 52
     36c:	3f 20       	and	r3, r15
     36e:	20 3f       	cpi	r18, 0xF0	; 240
     370:	60 07       	cpc	r22, r16
     372:	08 08       	sbc	r0, r8
     374:	08 7f       	andi	r16, 0xF8	; 248
     376:	7f 40       	sbci	r23, 0x0F	; 15
     378:	7e 40       	sbci	r23, 0x0E	; 14
     37a:	7f 3f       	cpi	r23, 0xFF	; 255
     37c:	20 3f       	cpi	r18, 0xF0	; 240
     37e:	20 7f       	andi	r18, 0xF0	; 240
     380:	01 7f       	andi	r16, 0xF1	; 241
     382:	48 48       	sbci	r20, 0x88	; 136
     384:	30 7f       	andi	r19, 0xF0	; 240
     386:	48 30       	cpi	r20, 0x08	; 8
     388:	00 7f       	andi	r16, 0xF0	; 240
     38a:	00 7f       	andi	r16, 0xF0	; 240
     38c:	48 48       	sbci	r20, 0x88	; 136
     38e:	30 22       	and	r3, r16
     390:	41 49       	sbci	r20, 0x91	; 145
     392:	49 3e       	cpi	r20, 0xE9	; 233
     394:	7f 08       	sbc	r7, r15
     396:	3e 41       	sbci	r19, 0x1E	; 30
     398:	3e 46       	sbci	r19, 0x6E	; 110
     39a:	29 19       	sub	r18, r9
     39c:	09 7f       	andi	r16, 0xF9	; 249
     39e:	20 54       	subi	r18, 0x40	; 64
     3a0:	54 54       	subi	r21, 0x44	; 68
     3a2:	78 3c       	cpi	r23, 0xC8	; 200
     3a4:	4a 4a       	sbci	r20, 0xAA	; 170
     3a6:	4a 31       	cpi	r20, 0x1A	; 26
     3a8:	7c 54       	subi	r23, 0x4C	; 76
     3aa:	54 28       	or	r5, r4
     3ac:	00 7c       	andi	r16, 0xC0	; 192
     3ae:	04 04       	cpc	r0, r4
     3b0:	0c 00       	.word	0x000c	; ????
     3b2:	60 3c       	cpi	r22, 0xC0	; 192
     3b4:	24 3c       	cpi	r18, 0xC4	; 196
     3b6:	60 38       	cpi	r22, 0x80	; 128
     3b8:	54 54       	subi	r21, 0x44	; 68
     3ba:	54 18       	sub	r5, r4
     3bc:	6c 10       	cpse	r6, r12
     3be:	7c 10       	cpse	r7, r12
     3c0:	6c 00       	.word	0x006c	; ????
     3c2:	44 54       	subi	r20, 0x44	; 68
     3c4:	54 28       	or	r5, r4
     3c6:	7c 20       	and	r7, r12
     3c8:	10 08       	sbc	r1, r0
     3ca:	7c 7c       	andi	r23, 0xCC	; 204
     3cc:	21 12       	cpse	r2, r17
     3ce:	09 7c       	andi	r16, 0xC9	; 201
     3d0:	7c 10       	cpse	r7, r12
     3d2:	28 44       	sbci	r18, 0x48	; 72
     3d4:	00 40       	sbci	r16, 0x00	; 0
     3d6:	38 04       	cpc	r3, r8
     3d8:	04 7c       	andi	r16, 0xC4	; 196
     3da:	7c 08       	sbc	r7, r12
     3dc:	10 08       	sbc	r1, r0
     3de:	7c 7c       	andi	r23, 0xCC	; 204
     3e0:	10 10       	cpse	r1, r0
     3e2:	10 7c       	andi	r17, 0xC0	; 192
     3e4:	38 44       	sbci	r19, 0x48	; 72
     3e6:	44 44       	sbci	r20, 0x44	; 68
     3e8:	38 7c       	andi	r19, 0xC8	; 200
     3ea:	04 04       	cpc	r0, r4
     3ec:	04 7c       	andi	r16, 0xC4	; 196
     3ee:	7c 14       	cp	r7, r12
     3f0:	14 14       	cp	r1, r4
     3f2:	08 38       	cpi	r16, 0x88	; 136
     3f4:	44 44       	sbci	r20, 0x44	; 68
     3f6:	44 00       	.word	0x0044	; ????
     3f8:	04 04       	cpc	r0, r4
     3fa:	7c 04       	cpc	r7, r12
     3fc:	04 0c       	add	r0, r4
     3fe:	50 50       	subi	r21, 0x00	; 0
     400:	50 3c       	cpi	r21, 0xC0	; 192
     402:	08 14       	cp	r0, r8
     404:	7c 14       	cp	r7, r12
     406:	08 44       	sbci	r16, 0x48	; 72
     408:	28 10       	cpse	r2, r8
     40a:	28 44       	sbci	r18, 0x48	; 72
     40c:	3c 20       	and	r3, r12
     40e:	20 3c       	cpi	r18, 0xC0	; 192
     410:	60 0c       	add	r6, r0
     412:	10 10       	cpse	r1, r0
     414:	10 7c       	andi	r17, 0xC0	; 192
     416:	7c 40       	sbci	r23, 0x0C	; 12
     418:	7c 40       	sbci	r23, 0x0C	; 12
     41a:	7c 3c       	cpi	r23, 0xCC	; 204
     41c:	20 3c       	cpi	r18, 0xC0	; 192
     41e:	20 7c       	andi	r18, 0xC0	; 192
     420:	04 7c       	andi	r16, 0xC4	; 196
     422:	50 50       	subi	r21, 0x00	; 0
     424:	20 7c       	andi	r18, 0xC0	; 192
     426:	50 20       	and	r5, r0
     428:	00 7c       	andi	r16, 0xC0	; 192
     42a:	00 7c       	andi	r16, 0xC0	; 192
     42c:	50 50       	subi	r21, 0x00	; 0
     42e:	20 28       	or	r2, r0
     430:	44 54       	subi	r20, 0x44	; 68
     432:	54 38       	cpi	r21, 0x84	; 132
     434:	7c 10       	cpse	r7, r12
     436:	38 44       	sbci	r19, 0x48	; 72
     438:	38 48       	sbci	r19, 0x88	; 136
     43a:	54 34       	cpi	r21, 0x44	; 68
     43c:	14 7c       	andi	r17, 0xC4	; 196

0000043e <__c.2322>:
     43e:	cf f0 fb e2 e5 f2 21 00                             ......!.

00000446 <__c.2071>:
     446:	2b 00                                               +.

00000448 <__c.2069>:
     448:	2d 00                                               -.

0000044a <__ctors_end>:
     44a:	11 24       	eor	r1, r1
     44c:	1f be       	out	0x3f, r1	; 63
     44e:	cf ef       	ldi	r28, 0xFF	; 255
     450:	d8 e0       	ldi	r29, 0x08	; 8
     452:	de bf       	out	0x3e, r29	; 62
     454:	cd bf       	out	0x3d, r28	; 61

00000456 <__do_copy_data>:
     456:	11 e0       	ldi	r17, 0x01	; 1
     458:	a0 e0       	ldi	r26, 0x00	; 0
     45a:	b1 e0       	ldi	r27, 0x01	; 1
     45c:	e0 e3       	ldi	r30, 0x30	; 48
     45e:	f0 e2       	ldi	r31, 0x20	; 32
     460:	02 c0       	rjmp	.+4      	; 0x466 <__do_copy_data+0x10>
     462:	05 90       	lpm	r0, Z+
     464:	0d 92       	st	X+, r0
     466:	ae 35       	cpi	r26, 0x5E	; 94
     468:	b1 07       	cpc	r27, r17
     46a:	d9 f7       	brne	.-10     	; 0x462 <__do_copy_data+0xc>

0000046c <__do_clear_bss>:
     46c:	23 e0       	ldi	r18, 0x03	; 3
     46e:	ae e5       	ldi	r26, 0x5E	; 94
     470:	b1 e0       	ldi	r27, 0x01	; 1
     472:	01 c0       	rjmp	.+2      	; 0x476 <.do_clear_bss_start>

00000474 <.do_clear_bss_loop>:
     474:	1d 92       	st	X+, r1

00000476 <.do_clear_bss_start>:
     476:	a6 3c       	cpi	r26, 0xC6	; 198
     478:	b2 07       	cpc	r27, r18
     47a:	e1 f7       	brne	.-8      	; 0x474 <.do_clear_bss_loop>
     47c:	0e 94 7b 07 	call	0xef6	; 0xef6 <main>
     480:	0c 94 16 10 	jmp	0x202c	; 0x202c <_exit>

00000484 <__bad_interrupt>:
     484:	0c 94 00 00 	jmp	0	; 0x0 <__vectors>

00000488 <LcdSend>:
 * Возвращаемое значение :  Нет
 */
static void LcdSend (byte data, LcdCmdData cd)
{
  // Включаем контроллер дисплея (низкий уровень активный)
    SET_LCD_PIN(LCD_CE_PIN, 0);
     488:	28 98       	cbi	0x05, 0	; 5

    SET_LCD_PIN(LCD_DC_PIN, cd == LCD_DATA);
     48a:	91 e0       	ldi	r25, 0x01	; 1
     48c:	61 30       	cpi	r22, 0x01	; 1
     48e:	09 f0       	breq	.+2      	; 0x492 <LcdSend+0xa>
     490:	90 e0       	ldi	r25, 0x00	; 0
     492:	90 fd       	sbrc	r25, 0
     494:	5f 9a       	sbi	0x0b, 7	; 11
     496:	90 ff       	sbrs	r25, 0
     498:	5f 98       	cbi	0x0b, 7	; 11
     49a:	28 e0       	ldi	r18, 0x08	; 8
     49c:	30 e0       	ldi	r19, 0x00	; 0
 * Возвращаемое значение :  Нет
 */

static void LcdVSPI (byte data ) {
  for(unsigned int i = 0; i< 8; i++, data = data << 1){
      SET_LCD_PIN(LCD_SDIN_PIN, (data & 0x80) == 0x80);
     49e:	98 2f       	mov	r25, r24
     4a0:	99 1f       	adc	r25, r25
     4a2:	99 27       	eor	r25, r25
     4a4:	99 1f       	adc	r25, r25
     4a6:	90 fd       	sbrc	r25, 0
     4a8:	5e 9a       	sbi	0x0b, 6	; 11
     4aa:	90 ff       	sbrs	r25, 0
     4ac:	5e 98       	cbi	0x0b, 6	; 11

      SET_LCD_PIN(LCD_SCLK_PIN, 1);
     4ae:	5d 9a       	sbi	0x0b, 5	; 11
      SET_LCD_PIN(LCD_SCLK_PIN, 0);
     4b0:	5d 98       	cbi	0x0b, 5	; 11
 * Аргумент(ы)           :  data -> данные для отправки
 * Возвращаемое значение :  Нет
 */

static void LcdVSPI (byte data ) {
  for(unsigned int i = 0; i< 8; i++, data = data << 1){
     4b2:	88 0f       	add	r24, r24
     4b4:	21 50       	subi	r18, 0x01	; 1
     4b6:	31 09       	sbc	r19, r1
     4b8:	91 f7       	brne	.-28     	; 0x49e <LcdSend+0x16>

    // Отправка данных в контроллер дисплея
    LcdVSPI(data);
    
    // Отключаем контроллер дисплея
    SET_LCD_PIN(LCD_CE_PIN, 1);
     4ba:	28 9a       	sbi	0x05, 0	; 5
     4bc:	08 95       	ret

000004be <Lcd_off>:
void Lcd_off (void) 				//выкл дисплея
{
	//#ifdef china
	//LcdSend( 0x20|x_mirror<<4|y_mirror<<3|1<<2|addressing<<1, LCD_CMD );			//LCD Standard Commands
	//#elif
	LcdSend( 0x20|1<<2|ADDRESSING<<1, LCD_CMD );
     4be:	60 e0       	ldi	r22, 0x00	; 0
     4c0:	84 e2       	ldi	r24, 0x24	; 36
     4c2:	0e 94 44 02 	call	0x488	; 0x488 <LcdSend>
     4c6:	08 95       	ret

000004c8 <Lcd_on>:
void Lcd_on (void) 				//вкл дисплея
{
	//#ifdef china
	//LcdSend( 0x20|x_mirror<<4|y_mirror<<3|0<<2|addressing<<1, LCD_CMD );			//LCD Standard Commands
	//#elif
	LcdSend( 0x20|0<<2|ADDRESSING<<1, LCD_CMD );
     4c8:	60 e0       	ldi	r22, 0x00	; 0
     4ca:	80 e2       	ldi	r24, 0x20	; 32
     4cc:	0e 94 44 02 	call	0x488	; 0x488 <LcdSend>
     4d0:	08 95       	ret

000004d2 <LcdClear>:
//    {
//        LcdCache[i] = 0x00;
//    }

    // Оптимизация от Jakub Lasinski (March 14 2009)
    memset( LcdCache, 0x00, LCD_CACHE_SIZE );
     4d2:	88 ef       	ldi	r24, 0xF8	; 248
     4d4:	91 e0       	ldi	r25, 0x01	; 1
     4d6:	e5 e6       	ldi	r30, 0x65	; 101
     4d8:	f1 e0       	ldi	r31, 0x01	; 1
     4da:	df 01       	movw	r26, r30
     4dc:	9c 01       	movw	r18, r24
     4de:	1d 92       	st	X+, r1
     4e0:	21 50       	subi	r18, 0x01	; 1
     4e2:	30 40       	sbci	r19, 0x00	; 0
     4e4:	e1 f7       	brne	.-8      	; 0x4de <LcdClear+0xc>
    
    // Сброс указателей границ в максимальное значение
    LoWaterMark = 0;
     4e6:	10 92 64 01 	sts	0x0164, r1
     4ea:	10 92 63 01 	sts	0x0163, r1
    HiWaterMark = LCD_CACHE_SIZE - 1;
     4ee:	87 ef       	ldi	r24, 0xF7	; 247
     4f0:	91 e0       	ldi	r25, 0x01	; 1
     4f2:	90 93 62 01 	sts	0x0162, r25
     4f6:	80 93 61 01 	sts	0x0161, r24

    // Установка флага изменений кэша
    UpdateLcd = TRUE;
     4fa:	81 e0       	ldi	r24, 0x01	; 1
     4fc:	80 93 5e 01 	sts	0x015E, r24
     500:	08 95       	ret

00000502 <LcdUpdate>:
 * Описание              :  Копирует кэш в ОЗУ дисплея
 * Аргумент(ы)           :  Нет
 * Возвращаемое значение :  Нет
 */
void LcdUpdate (void)
{
     502:	0f 93       	push	r16
     504:	1f 93       	push	r17
     506:	cf 93       	push	r28
     508:	df 93       	push	r29
    int i;

    if ( LoWaterMark < 0 )
     50a:	80 91 63 01 	lds	r24, 0x0163
     50e:	90 91 64 01 	lds	r25, 0x0164
     512:	99 23       	and	r25, r25
     514:	2c f4       	brge	.+10     	; 0x520 <LcdUpdate+0x1e>
        LoWaterMark = 0;
     516:	10 92 64 01 	sts	0x0164, r1
     51a:	10 92 63 01 	sts	0x0163, r1
     51e:	09 c0       	rjmp	.+18     	; 0x532 <LcdUpdate+0x30>
    else if ( LoWaterMark >= LCD_CACHE_SIZE )
     520:	88 3f       	cpi	r24, 0xF8	; 248
     522:	91 40       	sbci	r25, 0x01	; 1
     524:	34 f0       	brlt	.+12     	; 0x532 <LcdUpdate+0x30>
        LoWaterMark = LCD_CACHE_SIZE - 1;
     526:	87 ef       	ldi	r24, 0xF7	; 247
     528:	91 e0       	ldi	r25, 0x01	; 1
     52a:	90 93 64 01 	sts	0x0164, r25
     52e:	80 93 63 01 	sts	0x0163, r24

    if ( HiWaterMark < 0 )
     532:	80 91 61 01 	lds	r24, 0x0161
     536:	90 91 62 01 	lds	r25, 0x0162
     53a:	99 23       	and	r25, r25
     53c:	2c f4       	brge	.+10     	; 0x548 <LcdUpdate+0x46>
        HiWaterMark = 0;
     53e:	10 92 62 01 	sts	0x0162, r1
     542:	10 92 61 01 	sts	0x0161, r1
     546:	09 c0       	rjmp	.+18     	; 0x55a <LcdUpdate+0x58>
    else if ( HiWaterMark >= LCD_CACHE_SIZE )
     548:	88 3f       	cpi	r24, 0xF8	; 248
     54a:	91 40       	sbci	r25, 0x01	; 1
     54c:	34 f0       	brlt	.+12     	; 0x55a <LcdUpdate+0x58>
        HiWaterMark = LCD_CACHE_SIZE - 1;
     54e:	87 ef       	ldi	r24, 0xF7	; 247
     550:	91 e0       	ldi	r25, 0x01	; 1
     552:	90 93 62 01 	sts	0x0162, r25
     556:	80 93 61 01 	sts	0x0161, r24
        LcdSend( 0x20, LCD_CMD );    // Включаем стандартный набор команд и горизонтальную адресацию

    #else  // Алгоритм для оригинального дисплея

        // Устанавливаем начальный адрес в соответствии к LoWaterMark
        LcdSend( 0x80 | ( LoWaterMark % LCD_X_RES ), LCD_CMD );
     55a:	c0 91 63 01 	lds	r28, 0x0163
     55e:	d0 91 64 01 	lds	r29, 0x0164
     562:	ce 01       	movw	r24, r28
     564:	64 e5       	ldi	r22, 0x54	; 84
     566:	70 e0       	ldi	r23, 0x00	; 0
     568:	0e 94 15 0d 	call	0x1a2a	; 0x1a2a <__divmodhi4>
     56c:	16 2f       	mov	r17, r22
     56e:	60 e0       	ldi	r22, 0x00	; 0
     570:	80 68       	ori	r24, 0x80	; 128
     572:	0e 94 44 02 	call	0x488	; 0x488 <LcdSend>
        LcdSend( 0x40 | ( LoWaterMark / LCD_X_RES ), LCD_CMD );
     576:	60 e0       	ldi	r22, 0x00	; 0
     578:	81 2f       	mov	r24, r17
     57a:	80 64       	ori	r24, 0x40	; 64
     57c:	0e 94 44 02 	call	0x488	; 0x488 <LcdSend>

        // Обновляем необходимую часть буфера дисплея
        for ( i = LoWaterMark; i <= HiWaterMark; i++ )
     580:	80 91 61 01 	lds	r24, 0x0161
     584:	90 91 62 01 	lds	r25, 0x0162
     588:	8c 17       	cp	r24, r28
     58a:	9d 07       	cpc	r25, r29
     58c:	8c f0       	brlt	.+34     	; 0x5b0 <LcdUpdate+0xae>
     58e:	8e 01       	movw	r16, r28
     590:	0b 59       	subi	r16, 0x9B	; 155
     592:	1e 4f       	sbci	r17, 0xFE	; 254
        {
            // Для оригинального дисплея не нужно следить за адресом в буфере,
            // можно просто последовательно выводить данные
            LcdSend( LcdCache[i], LCD_DATA );
     594:	61 e0       	ldi	r22, 0x01	; 1
     596:	f8 01       	movw	r30, r16
     598:	81 91       	ld	r24, Z+
     59a:	8f 01       	movw	r16, r30
     59c:	0e 94 44 02 	call	0x488	; 0x488 <LcdSend>
        // Устанавливаем начальный адрес в соответствии к LoWaterMark
        LcdSend( 0x80 | ( LoWaterMark % LCD_X_RES ), LCD_CMD );
        LcdSend( 0x40 | ( LoWaterMark / LCD_X_RES ), LCD_CMD );

        // Обновляем необходимую часть буфера дисплея
        for ( i = LoWaterMark; i <= HiWaterMark; i++ )
     5a0:	21 96       	adiw	r28, 0x01	; 1
     5a2:	80 91 61 01 	lds	r24, 0x0161
     5a6:	90 91 62 01 	lds	r25, 0x0162
     5aa:	8c 17       	cp	r24, r28
     5ac:	9d 07       	cpc	r25, r29
     5ae:	94 f7       	brge	.-28     	; 0x594 <LcdUpdate+0x92>
        }

    #endif

    // Сброс указателей границ в пустоту
    LoWaterMark = LCD_CACHE_SIZE - 1;
     5b0:	87 ef       	ldi	r24, 0xF7	; 247
     5b2:	91 e0       	ldi	r25, 0x01	; 1
     5b4:	90 93 64 01 	sts	0x0164, r25
     5b8:	80 93 63 01 	sts	0x0163, r24
    HiWaterMark = 0;
     5bc:	10 92 62 01 	sts	0x0162, r1
     5c0:	10 92 61 01 	sts	0x0161, r1

    // Сброс флага изменений кэша
    UpdateLcd = FALSE;
     5c4:	10 92 5e 01 	sts	0x015E, r1
}
     5c8:	df 91       	pop	r29
     5ca:	cf 91       	pop	r28
     5cc:	1f 91       	pop	r17
     5ce:	0f 91       	pop	r16
     5d0:	08 95       	ret

000005d2 <LcdInit>:
 */

void LcdInit ( void )
{
    // Pull-up на вывод подключенный к reset дисплея
    SET_LCD_PIN(LCD_RST_PIN, 1);
     5d2:	29 9a       	sbi	0x05, 1	; 5
    
    // Предконфигурация перифирии
    LCD_PRE_CFG
    
    // Устанавливаем нужные пины на выход
    LCD_PIN_CFG(LCD_DC_PIN);
     5d4:	57 9a       	sbi	0x0a, 7	; 10
    LCD_PIN_CFG(LCD_CE_PIN);
     5d6:	20 9a       	sbi	0x04, 0	; 4
    LCD_PIN_CFG(LCD_RST_PIN);
     5d8:	21 9a       	sbi	0x04, 1	; 4
    LCD_PIN_CFG(LCD_SDIN_PIN);
     5da:	56 9a       	sbi	0x0a, 6	; 10
    LCD_PIN_CFG(LCD_SCLK_PIN);
     5dc:	55 9a       	sbi	0x0a, 5	; 10

    // Предконфигурация перифирии
    LCD_POST_CFG
    
    // Дергаем reset
    SET_LCD_PIN(LCD_RST_PIN, 0);
     5de:	29 98       	cbi	0x05, 1	; 5
    SET_LCD_PIN(LCD_RST_PIN, 1);
     5e0:	29 9a       	sbi	0x05, 1	; 5

    // Отключаем LCD контроллер - высокий уровень на SCE
    SET_LCD_PIN(LCD_CE_PIN, 1);
     5e2:	28 9a       	sbi	0x05, 0	; 5
  
    // Отправляем команды дисплею
    LcdSend( 0x21, LCD_CMD ); // Включаем расширенный набор команд (LCD Extended Commands)
     5e4:	60 e0       	ldi	r22, 0x00	; 0
     5e6:	81 e2       	ldi	r24, 0x21	; 33
     5e8:	0e 94 44 02 	call	0x488	; 0x488 <LcdSend>
    LcdSend( 0xC8, LCD_CMD ); // Установка контрастности (LCD Vop)
     5ec:	60 e0       	ldi	r22, 0x00	; 0
     5ee:	88 ec       	ldi	r24, 0xC8	; 200
     5f0:	0e 94 44 02 	call	0x488	; 0x488 <LcdSend>
    LcdSend( 0x06, LCD_CMD ); // Установка температурного коэффициента (Temp coefficent)
     5f4:	60 e0       	ldi	r22, 0x00	; 0
     5f6:	86 e0       	ldi	r24, 0x06	; 6
     5f8:	0e 94 44 02 	call	0x488	; 0x488 <LcdSend>
    LcdSend( 0x13, LCD_CMD ); // Настройка питания (LCD bias mode 1:48)
     5fc:	60 e0       	ldi	r22, 0x00	; 0
     5fe:	83 e1       	ldi	r24, 0x13	; 19
     600:	0e 94 44 02 	call	0x488	; 0x488 <LcdSend>
    LcdSend( 0x20, LCD_CMD ); // Включаем стандартный набор команд и горизонтальную адресацию (LCD Standard Commands,Horizontal addressing mode)
     604:	60 e0       	ldi	r22, 0x00	; 0
     606:	80 e2       	ldi	r24, 0x20	; 32
     608:	0e 94 44 02 	call	0x488	; 0x488 <LcdSend>
    LcdSend( 0x0C, LCD_CMD ); // Нормальный режим (LCD in normal mode)
     60c:	60 e0       	ldi	r22, 0x00	; 0
     60e:	8c e0       	ldi	r24, 0x0C	; 12
     610:	0e 94 44 02 	call	0x488	; 0x488 <LcdSend>

    // Первичная очистка дисплея
    LcdClear();
     614:	0e 94 69 02 	call	0x4d2	; 0x4d2 <LcdClear>
    LcdUpdate();
     618:	0e 94 81 02 	call	0x502	; 0x502 <LcdUpdate>
     61c:	08 95       	ret

0000061e <LcdGotoXYFont>:
 * Возвращаемое значение :  смотри возвращаемое значение в n3310.h
 */
byte LcdGotoXYFont ( byte x, byte y )
{
    // Проверка границ
    if( x > 13 || y > 5 ) return OUT_OF_BORDER;
     61e:	8e 30       	cpi	r24, 0x0E	; 14
     620:	a8 f4       	brcc	.+42     	; 0x64c <LcdGotoXYFont+0x2e>
     622:	66 30       	cpi	r22, 0x06	; 6
     624:	a8 f4       	brcc	.+42     	; 0x650 <LcdGotoXYFont+0x32>

    //  Вычисление указателя. Определен как адрес в пределах 504 байт
    LcdCacheIdx = x * 6 + y * 84;
     626:	90 e0       	ldi	r25, 0x00	; 0
     628:	9c 01       	movw	r18, r24
     62a:	22 0f       	add	r18, r18
     62c:	33 1f       	adc	r19, r19
     62e:	82 0f       	add	r24, r18
     630:	93 1f       	adc	r25, r19
     632:	88 0f       	add	r24, r24
     634:	99 1f       	adc	r25, r25
     636:	24 e5       	ldi	r18, 0x54	; 84
     638:	62 9f       	mul	r22, r18
     63a:	80 0d       	add	r24, r0
     63c:	91 1d       	adc	r25, r1
     63e:	11 24       	eor	r1, r1
     640:	90 93 60 01 	sts	0x0160, r25
     644:	80 93 5f 01 	sts	0x015F, r24
    return OK;
     648:	80 e0       	ldi	r24, 0x00	; 0
     64a:	08 95       	ret
 * Возвращаемое значение :  смотри возвращаемое значение в n3310.h
 */
byte LcdGotoXYFont ( byte x, byte y )
{
    // Проверка границ
    if( x > 13 || y > 5 ) return OUT_OF_BORDER;
     64c:	81 e0       	ldi	r24, 0x01	; 1
     64e:	08 95       	ret
     650:	81 e0       	ldi	r24, 0x01	; 1

    //  Вычисление указателя. Определен как адрес в пределах 504 байт
    LcdCacheIdx = x * 6 + y * 84;
    return OK;
}
     652:	08 95       	ret

00000654 <LcdChr>:
 * Аргумент(ы)           :  size -> размер шрифта. Смотри enum в n3310.h
 *                          ch   -> символ для вывода
 * Возвращаемое значение :  смотри возвращаемое значение в n3310lcd.h
 */
byte LcdChr ( LcdFontSize size, byte ch )
{
     654:	0f 93       	push	r16
     656:	1f 93       	push	r17
     658:	cf 93       	push	r28
     65a:	df 93       	push	r29
    byte i, c;
    byte b1, b2;
    int  tmpIdx;

    if ( LcdCacheIdx < LoWaterMark )
     65c:	40 91 5f 01 	lds	r20, 0x015F
     660:	50 91 60 01 	lds	r21, 0x0160
     664:	20 91 63 01 	lds	r18, 0x0163
     668:	30 91 64 01 	lds	r19, 0x0164
     66c:	42 17       	cp	r20, r18
     66e:	53 07       	cpc	r21, r19
     670:	24 f4       	brge	.+8      	; 0x67a <LcdChr+0x26>
    {
        // Обновляем нижнюю границу
        LoWaterMark = LcdCacheIdx;
     672:	50 93 64 01 	sts	0x0164, r21
     676:	40 93 63 01 	sts	0x0163, r20
    }

    if ( (ch >= 0x20) && (ch <= 0x7F) )
     67a:	e0 ee       	ldi	r30, 0xE0	; 224
     67c:	e6 0f       	add	r30, r22
     67e:	e0 36       	cpi	r30, 0x60	; 96
     680:	08 f4       	brcc	.+2      	; 0x684 <LcdChr+0x30>
     682:	a1 c0       	rjmp	.+322    	; 0x7c6 <LcdChr+0x172>
    {
        // Смещение в таблице для символов ASCII[0x20-0x7F]
        ch -= 32;
    }
    else if ( ch >= 0xC0 )
     684:	60 3c       	cpi	r22, 0xC0	; 192
     686:	08 f4       	brcc	.+2      	; 0x68a <LcdChr+0x36>
     688:	9d c0       	rjmp	.+314    	; 0x7c4 <LcdChr+0x170>
    {
        // Смещение в таблице для символов CP1251[0xC0-0xFF]
        ch -= 96;
     68a:	e0 ea       	ldi	r30, 0xA0	; 160
     68c:	e6 0f       	add	r30, r22
     68e:	9b c0       	rjmp	.+310    	; 0x7c6 <LcdChr+0x172>
    if ( size == FONT_1X )
    {
        for ( i = 0; i < 5; i++ )
        {
            // Копируем вид символа из таблицы в кэш
            LcdCache[LcdCacheIdx++] = pgm_read_byte( &(FontLookup[ch][i]) ) << 1;
     690:	84 91       	lpm	r24, Z
     692:	88 0f       	add	r24, r24
     694:	8d 93       	st	X+, r24
     696:	31 96       	adiw	r30, 0x01	; 1
        ch = 95;
    }

    if ( size == FONT_1X )
    {
        for ( i = 0; i < 5; i++ )
     698:	a2 17       	cp	r26, r18
     69a:	b3 07       	cpc	r27, r19
     69c:	c9 f7       	brne	.-14     	; 0x690 <LcdChr+0x3c>
     69e:	4b 5f       	subi	r20, 0xFB	; 251
     6a0:	5f 4f       	sbci	r21, 0xFF	; 255
     6a2:	50 93 60 01 	sts	0x0160, r21
     6a6:	40 93 5f 01 	sts	0x015F, r20
     6aa:	66 c0       	rjmp	.+204    	; 0x778 <LcdChr+0x124>
	//	 {
	//		 // Копируем вид символа из таблицы в кэш
	//		 LcdCache[LcdCacheIdx++] = pgm_read_byte( &(BigFontLookup[ch][i]) ) << 1;
	//	 }
	// }
    else if ( size == FONT_2X )
     6ac:	82 30       	cpi	r24, 0x02	; 2
     6ae:	09 f0       	breq	.+2      	; 0x6b2 <LcdChr+0x5e>
     6b0:	63 c0       	rjmp	.+198    	; 0x778 <LcdChr+0x124>
    {
        tmpIdx = LcdCacheIdx - 84;
     6b2:	ca 01       	movw	r24, r20
     6b4:	84 55       	subi	r24, 0x54	; 84
     6b6:	91 09       	sbc	r25, r1

        if ( tmpIdx < LoWaterMark )
     6b8:	20 91 63 01 	lds	r18, 0x0163
     6bc:	30 91 64 01 	lds	r19, 0x0164
     6c0:	82 17       	cp	r24, r18
     6c2:	93 07       	cpc	r25, r19
     6c4:	0c f0       	brlt	.+2      	; 0x6c8 <LcdChr+0x74>
     6c6:	97 c0       	rjmp	.+302    	; 0x7f6 <LcdChr+0x1a2>
        {
            LoWaterMark = tmpIdx;
     6c8:	90 93 64 01 	sts	0x0164, r25
     6cc:	80 93 63 01 	sts	0x0163, r24
     6d0:	92 c0       	rjmp	.+292    	; 0x7f6 <LcdChr+0x1a2>
        if ( tmpIdx < 0 ) return OUT_OF_BORDER;

        for ( i = 0; i < 5; i++ )
        {
            // Копируем вид символа из таблицы у временную переменную
            c = pgm_read_byte(&(FontLookup[ch][i])) << 1;
     6d2:	94 91       	lpm	r25, Z
     6d4:	99 0f       	add	r25, r25
            // Увеличиваем картинку
            // Первую часть
            b1 =  (c & 0x01) * 3;
            b1 |= (c & 0x02) * 6;
            b1 |= (c & 0x04) * 12;
     6d6:	89 2f       	mov	r24, r25
     6d8:	84 70       	andi	r24, 0x04	; 4
     6da:	28 2f       	mov	r18, r24
     6dc:	22 0f       	add	r18, r18
     6de:	82 0f       	add	r24, r18
     6e0:	28 2f       	mov	r18, r24
     6e2:	22 0f       	add	r18, r18
     6e4:	22 0f       	add	r18, r18
            // Копируем вид символа из таблицы у временную переменную
            c = pgm_read_byte(&(FontLookup[ch][i])) << 1;
            // Увеличиваем картинку
            // Первую часть
            b1 =  (c & 0x01) * 3;
            b1 |= (c & 0x02) * 6;
     6e6:	89 2f       	mov	r24, r25
     6e8:	82 70       	andi	r24, 0x02	; 2
     6ea:	38 2f       	mov	r19, r24
     6ec:	33 0f       	add	r19, r19
     6ee:	83 0f       	add	r24, r19
     6f0:	88 0f       	add	r24, r24
            b1 |= (c & 0x04) * 12;
     6f2:	82 2b       	or	r24, r18
            b1 |= (c & 0x08) * 24;
     6f4:	c9 2f       	mov	r28, r25
     6f6:	c8 70       	andi	r28, 0x08	; 8
     6f8:	c0 9f       	mul	r28, r16
     6fa:	c0 2d       	mov	r28, r0
     6fc:	11 24       	eor	r1, r1
     6fe:	1c 2f       	mov	r17, r28
     700:	18 2b       	or	r17, r24

            c >>= 4;
     702:	92 95       	swap	r25
     704:	9f 70       	andi	r25, 0x0F	; 15
            // Вторую часть
            b2 =  (c & 0x01) * 3;
     706:	89 2f       	mov	r24, r25
     708:	81 70       	andi	r24, 0x01	; 1
     70a:	38 2f       	mov	r19, r24
     70c:	33 0f       	add	r19, r19
     70e:	83 0f       	add	r24, r19
            b2 |= (c & 0x02) * 6;
     710:	39 2f       	mov	r19, r25
     712:	32 70       	andi	r19, 0x02	; 2
     714:	23 2f       	mov	r18, r19
     716:	22 0f       	add	r18, r18
     718:	32 0f       	add	r19, r18
     71a:	33 0f       	add	r19, r19
     71c:	83 2b       	or	r24, r19
            b2 |= (c & 0x04) * 12;
     71e:	29 2f       	mov	r18, r25
     720:	24 70       	andi	r18, 0x04	; 4
     722:	32 2f       	mov	r19, r18
     724:	33 0f       	add	r19, r19
     726:	23 0f       	add	r18, r19
     728:	22 0f       	add	r18, r18
     72a:	22 0f       	add	r18, r18
     72c:	82 2b       	or	r24, r18
            b2 |= (c & 0x08) * 24;
     72e:	29 2f       	mov	r18, r25
     730:	28 70       	andi	r18, 0x08	; 8
     732:	20 9f       	mul	r18, r16
     734:	20 2d       	mov	r18, r0
     736:	11 24       	eor	r1, r1
     738:	98 2f       	mov	r25, r24
     73a:	92 2b       	or	r25, r18
     73c:	9d 01       	movw	r18, r26
     73e:	21 50       	subi	r18, 0x01	; 1
     740:	31 09       	sbc	r19, r1

            // Копируем две части в кэш
            LcdCache[tmpIdx++] = b1;
     742:	e9 01       	movw	r28, r18
     744:	18 83       	st	Y, r17
            LcdCache[tmpIdx++] = b1;
     746:	1c 93       	st	X, r17
     748:	2c 5a       	subi	r18, 0xAC	; 172
     74a:	3f 4f       	sbci	r19, 0xFF	; 255
            LcdCache[tmpIdx + 82] = b2;
     74c:	e9 01       	movw	r28, r18
     74e:	98 83       	st	Y, r25
     750:	2f 5f       	subi	r18, 0xFF	; 255
     752:	3f 4f       	sbci	r19, 0xFF	; 255
            LcdCache[tmpIdx + 83] = b2;
     754:	e9 01       	movw	r28, r18
     756:	98 83       	st	Y, r25
     758:	31 96       	adiw	r30, 0x01	; 1
     75a:	12 96       	adiw	r26, 0x02	; 2
            LoWaterMark = tmpIdx;
        }

        if ( tmpIdx < 0 ) return OUT_OF_BORDER;

        for ( i = 0; i < 5; i++ )
     75c:	a6 17       	cp	r26, r22
     75e:	b7 07       	cpc	r27, r23
     760:	09 f0       	breq	.+2      	; 0x764 <LcdChr+0x110>
     762:	b7 cf       	rjmp	.-146    	; 0x6d2 <LcdChr+0x7e>
            LcdCache[tmpIdx + 82] = b2;
            LcdCache[tmpIdx + 83] = b2;
        }

        // Обновляем x координату курсора
        LcdCacheIdx = (LcdCacheIdx + 11) % LCD_CACHE_SIZE;
     764:	ca 01       	movw	r24, r20
     766:	0b 96       	adiw	r24, 0x0b	; 11
     768:	68 ef       	ldi	r22, 0xF8	; 248
     76a:	71 e0       	ldi	r23, 0x01	; 1
     76c:	0e 94 15 0d 	call	0x1a2a	; 0x1a2a <__divmodhi4>
     770:	90 93 60 01 	sts	0x0160, r25
     774:	80 93 5f 01 	sts	0x015F, r24
    }




    if ( LcdCacheIdx > HiWaterMark )
     778:	80 91 5f 01 	lds	r24, 0x015F
     77c:	90 91 60 01 	lds	r25, 0x0160
     780:	20 91 61 01 	lds	r18, 0x0161
     784:	30 91 62 01 	lds	r19, 0x0162
     788:	28 17       	cp	r18, r24
     78a:	39 07       	cpc	r19, r25
     78c:	24 f4       	brge	.+8      	; 0x796 <LcdChr+0x142>
    {
        // Обновляем верхнюю границу
        HiWaterMark = LcdCacheIdx;
     78e:	90 93 62 01 	sts	0x0162, r25
     792:	80 93 61 01 	sts	0x0161, r24
    }

    // Горизонтальный разрыв между символами
    LcdCache[LcdCacheIdx] = 0x00;
     796:	fc 01       	movw	r30, r24
     798:	eb 59       	subi	r30, 0x9B	; 155
     79a:	fe 4f       	sbci	r31, 0xFE	; 254
     79c:	10 82       	st	Z, r1
    // Если достигли позицию указателя LCD_CACHE_SIZE - 1, переходим в начало
    if(LcdCacheIdx == (LCD_CACHE_SIZE - 1) )
     79e:	87 3f       	cpi	r24, 0xF7	; 247
     7a0:	d1 e0       	ldi	r29, 0x01	; 1
     7a2:	9d 07       	cpc	r25, r29
     7a4:	31 f4       	brne	.+12     	; 0x7b2 <LcdChr+0x15e>
    {
        LcdCacheIdx = 0;
     7a6:	10 92 60 01 	sts	0x0160, r1
     7aa:	10 92 5f 01 	sts	0x015F, r1
        return OK_WITH_WRAP;
     7ae:	82 e0       	ldi	r24, 0x02	; 2
     7b0:	36 c0       	rjmp	.+108    	; 0x81e <LcdChr+0x1ca>
    }
    // Иначе просто инкрементируем указатель
    LcdCacheIdx++;
     7b2:	01 96       	adiw	r24, 0x01	; 1
     7b4:	90 93 60 01 	sts	0x0160, r25
     7b8:	80 93 5f 01 	sts	0x015F, r24
    return OK;
     7bc:	80 e0       	ldi	r24, 0x00	; 0
     7be:	2f c0       	rjmp	.+94     	; 0x81e <LcdChr+0x1ca>
        if ( tmpIdx < LoWaterMark )
        {
            LoWaterMark = tmpIdx;
        }

        if ( tmpIdx < 0 ) return OUT_OF_BORDER;
     7c0:	81 e0       	ldi	r24, 0x01	; 1
     7c2:	2d c0       	rjmp	.+90     	; 0x81e <LcdChr+0x1ca>
        ch -= 96;
    }
    else
    {
        // Остальные игнорируем (их просто нет в таблице для экономии памяти)
        ch = 95;
     7c4:	ef e5       	ldi	r30, 0x5F	; 95
    }

    if ( size == FONT_1X )
     7c6:	81 30       	cpi	r24, 0x01	; 1
     7c8:	09 f0       	breq	.+2      	; 0x7cc <LcdChr+0x178>
     7ca:	70 cf       	rjmp	.-288    	; 0x6ac <LcdChr+0x58>
     7cc:	40 91 5f 01 	lds	r20, 0x015F
     7d0:	50 91 60 01 	lds	r21, 0x0160
     7d4:	f0 e0       	ldi	r31, 0x00	; 0
     7d6:	cf 01       	movw	r24, r30
     7d8:	88 0f       	add	r24, r24
     7da:	99 1f       	adc	r25, r25
     7dc:	88 0f       	add	r24, r24
     7de:	99 1f       	adc	r25, r25
     7e0:	e8 0f       	add	r30, r24
     7e2:	f9 1f       	adc	r31, r25
     7e4:	e2 5e       	subi	r30, 0xE2	; 226
     7e6:	fe 4f       	sbci	r31, 0xFE	; 254
     7e8:	da 01       	movw	r26, r20
     7ea:	ab 59       	subi	r26, 0x9B	; 155
     7ec:	be 4f       	sbci	r27, 0xFE	; 254
     7ee:	9a 01       	movw	r18, r20
     7f0:	26 59       	subi	r18, 0x96	; 150
     7f2:	3e 4f       	sbci	r19, 0xFE	; 254
     7f4:	4d cf       	rjmp	.-358    	; 0x690 <LcdChr+0x3c>
        if ( tmpIdx < LoWaterMark )
        {
            LoWaterMark = tmpIdx;
        }

        if ( tmpIdx < 0 ) return OUT_OF_BORDER;
     7f6:	99 23       	and	r25, r25
     7f8:	1c f3       	brlt	.-58     	; 0x7c0 <LcdChr+0x16c>
     7fa:	f0 e0       	ldi	r31, 0x00	; 0
     7fc:	cf 01       	movw	r24, r30
     7fe:	88 0f       	add	r24, r24
     800:	99 1f       	adc	r25, r25
     802:	88 0f       	add	r24, r24
     804:	99 1f       	adc	r25, r25
     806:	e8 0f       	add	r30, r24
     808:	f9 1f       	adc	r31, r25
     80a:	e2 5e       	subi	r30, 0xE2	; 226
     80c:	fe 4f       	sbci	r31, 0xFE	; 254
     80e:	da 01       	movw	r26, r20
     810:	ae 5e       	subi	r26, 0xEE	; 238
     812:	be 4f       	sbci	r27, 0xFE	; 254
     814:	ba 01       	movw	r22, r20
     816:	64 5e       	subi	r22, 0xE4	; 228
     818:	7e 4f       	sbci	r23, 0xFE	; 254
            // Увеличиваем картинку
            // Первую часть
            b1 =  (c & 0x01) * 3;
            b1 |= (c & 0x02) * 6;
            b1 |= (c & 0x04) * 12;
            b1 |= (c & 0x08) * 24;
     81a:	08 e1       	ldi	r16, 0x18	; 24
     81c:	5a cf       	rjmp	.-332    	; 0x6d2 <LcdChr+0x7e>
        return OK_WITH_WRAP;
    }
    // Иначе просто инкрементируем указатель
    LcdCacheIdx++;
    return OK;
}
     81e:	df 91       	pop	r29
     820:	cf 91       	pop	r28
     822:	1f 91       	pop	r17
     824:	0f 91       	pop	r16
     826:	08 95       	ret

00000828 <LcdStr>:
 * Аргумент(ы)           :  size      -> размер шрифта. Смотри enum в n3310.h
 *                          dataArray -> массив содержащий строку которую нужно напечатать
 * Возвращаемое значение :  смотри возвращаемое значение в n3310lcd.h
 */
byte LcdStr ( LcdFontSize size, byte dataArray[] )
{
     828:	0f 93       	push	r16
     82a:	1f 93       	push	r17
     82c:	cf 93       	push	r28
     82e:	df 93       	push	r29
     830:	fb 01       	movw	r30, r22
    byte tmpIdx=0;
    byte response;
    while( dataArray[ tmpIdx ] != '\0' )
     832:	60 81       	ld	r22, Z
     834:	66 23       	and	r22, r22
     836:	89 f0       	breq	.+34     	; 0x85a <LcdStr+0x32>
     838:	8f 01       	movw	r16, r30
     83a:	d8 2f       	mov	r29, r24
     83c:	c0 e0       	ldi	r28, 0x00	; 0
    {
        // Выводим символ
        response = LcdChr( size, dataArray[ tmpIdx ] );
     83e:	8d 2f       	mov	r24, r29
     840:	0e 94 2a 03 	call	0x654	; 0x654 <LcdChr>
        // Не стоит волноваться если произойдет OUT_OF_BORDER,
        // строка будет печататься дальше из начала дисплея
        if( response == OUT_OF_BORDER)
     844:	81 30       	cpi	r24, 0x01	; 1
     846:	41 f0       	breq	.+16     	; 0x858 <LcdStr+0x30>
            return OUT_OF_BORDER;
        // Увеличиваем указатель
        tmpIdx++;
     848:	cf 5f       	subi	r28, 0xFF	; 255
 */
byte LcdStr ( LcdFontSize size, byte dataArray[] )
{
    byte tmpIdx=0;
    byte response;
    while( dataArray[ tmpIdx ] != '\0' )
     84a:	f8 01       	movw	r30, r16
     84c:	ec 0f       	add	r30, r28
     84e:	f1 1d       	adc	r31, r1
     850:	60 81       	ld	r22, Z
     852:	61 11       	cpse	r22, r1
     854:	f4 cf       	rjmp	.-24     	; 0x83e <LcdStr+0x16>
     856:	01 c0       	rjmp	.+2      	; 0x85a <LcdStr+0x32>
        // Выводим символ
        response = LcdChr( size, dataArray[ tmpIdx ] );
        // Не стоит волноваться если произойдет OUT_OF_BORDER,
        // строка будет печататься дальше из начала дисплея
        if( response == OUT_OF_BORDER)
            return OUT_OF_BORDER;
     858:	61 e0       	ldi	r22, 0x01	; 1
        // Увеличиваем указатель
        tmpIdx++;
    }
    return OK;
}
     85a:	86 2f       	mov	r24, r22
     85c:	df 91       	pop	r29
     85e:	cf 91       	pop	r28
     860:	1f 91       	pop	r17
     862:	0f 91       	pop	r16
     864:	08 95       	ret

00000866 <LcdFStr>:
 * Возвращаемое значение :  смотри возвращаемое значение в n3310lcd.h
 * Пример                :  LcdFStr(FONT_1X, PSTR("Hello World"));
 *                          LcdFStr(FONT_1X, &name_of_string_as_array);
 */
byte LcdFStr ( LcdFontSize size, const byte *dataPtr )
{
     866:	1f 93       	push	r17
     868:	cf 93       	push	r28
     86a:	df 93       	push	r29
     86c:	18 2f       	mov	r17, r24
     86e:	eb 01       	movw	r28, r22
    byte c;
    byte response;
    for ( c = pgm_read_byte( dataPtr ); c; ++dataPtr, c = pgm_read_byte( dataPtr ) )
     870:	fb 01       	movw	r30, r22
     872:	64 91       	lpm	r22, Z
     874:	66 23       	and	r22, r22
     876:	61 f0       	breq	.+24     	; 0x890 <LcdFStr+0x2a>
    {
        // Выводим символ
        response = LcdChr( size, c );
     878:	81 2f       	mov	r24, r17
     87a:	0e 94 2a 03 	call	0x654	; 0x654 <LcdChr>
        if(response == OUT_OF_BORDER)
     87e:	81 30       	cpi	r24, 0x01	; 1
     880:	49 f0       	breq	.+18     	; 0x894 <LcdFStr+0x2e>
 */
byte LcdFStr ( LcdFontSize size, const byte *dataPtr )
{
    byte c;
    byte response;
    for ( c = pgm_read_byte( dataPtr ); c; ++dataPtr, c = pgm_read_byte( dataPtr ) )
     882:	21 96       	adiw	r28, 0x01	; 1
     884:	fe 01       	movw	r30, r28
     886:	64 91       	lpm	r22, Z
     888:	61 11       	cpse	r22, r1
     88a:	f6 cf       	rjmp	.-20     	; 0x878 <LcdFStr+0x12>
        response = LcdChr( size, c );
        if(response == OUT_OF_BORDER)
            return OUT_OF_BORDER;
    }

    return OK;
     88c:	80 e0       	ldi	r24, 0x00	; 0
     88e:	03 c0       	rjmp	.+6      	; 0x896 <LcdFStr+0x30>
     890:	80 e0       	ldi	r24, 0x00	; 0
     892:	01 c0       	rjmp	.+2      	; 0x896 <LcdFStr+0x30>
    for ( c = pgm_read_byte( dataPtr ); c; ++dataPtr, c = pgm_read_byte( dataPtr ) )
    {
        // Выводим символ
        response = LcdChr( size, c );
        if(response == OUT_OF_BORDER)
            return OUT_OF_BORDER;
     894:	81 e0       	ldi	r24, 0x01	; 1
    }

    return OK;
}
     896:	df 91       	pop	r29
     898:	cf 91       	pop	r28
     89a:	1f 91       	pop	r17
     89c:	08 95       	ret

0000089e <LcdPixel>:
    int  index;
    byte  offset;
    byte  data;

    // Защита от выхода за пределы
    if ( x >= LCD_X_RES || y >= LCD_Y_RES) return OUT_OF_BORDER;
     89e:	84 35       	cpi	r24, 0x54	; 84
     8a0:	08 f0       	brcs	.+2      	; 0x8a4 <LcdPixel+0x6>
     8a2:	52 c0       	rjmp	.+164    	; 0x948 <__stack+0x49>
     8a4:	60 33       	cpi	r22, 0x30	; 48
     8a6:	08 f0       	brcs	.+2      	; 0x8aa <LcdPixel+0xc>
     8a8:	51 c0       	rjmp	.+162    	; 0x94c <__stack+0x4d>

    // Пересчет индекса и смещения
    index = ( ( y / 8 ) * 84 ) + x;
     8aa:	26 2f       	mov	r18, r22
     8ac:	26 95       	lsr	r18
     8ae:	26 95       	lsr	r18
     8b0:	26 95       	lsr	r18
     8b2:	90 e0       	ldi	r25, 0x00	; 0
     8b4:	34 e5       	ldi	r19, 0x54	; 84
     8b6:	23 9f       	mul	r18, r19
     8b8:	80 0d       	add	r24, r0
     8ba:	91 1d       	adc	r25, r1
     8bc:	11 24       	eor	r1, r1
    offset  = y - ( ( y / 8 ) * 8 );
     8be:	22 0f       	add	r18, r18
     8c0:	22 0f       	add	r18, r18
     8c2:	22 0f       	add	r18, r18
     8c4:	62 1b       	sub	r22, r18

    data = LcdCache[ index ];
     8c6:	fc 01       	movw	r30, r24
     8c8:	eb 59       	subi	r30, 0x9B	; 155
     8ca:	fe 4f       	sbci	r31, 0xFE	; 254
     8cc:	20 81       	ld	r18, Z

    // Обработка битов

    // Режим PIXEL_OFF
    if ( mode == PIXEL_OFF )
     8ce:	41 11       	cpse	r20, r1
     8d0:	0a c0       	rjmp	.+20     	; 0x8e6 <LcdPixel+0x48>
    {
        data &= ( ~( 0x01 << offset ) );
     8d2:	41 e0       	ldi	r20, 0x01	; 1
     8d4:	50 e0       	ldi	r21, 0x00	; 0
     8d6:	02 c0       	rjmp	.+4      	; 0x8dc <LcdPixel+0x3e>
     8d8:	44 0f       	add	r20, r20
     8da:	55 1f       	adc	r21, r21
     8dc:	6a 95       	dec	r22
     8de:	e2 f7       	brpl	.-8      	; 0x8d8 <LcdPixel+0x3a>
     8e0:	40 95       	com	r20
     8e2:	24 23       	and	r18, r20
     8e4:	15 c0       	rjmp	.+42     	; 0x910 <__stack+0x11>
    }
    // Режим PIXEL_ON
    else if ( mode == PIXEL_ON )
     8e6:	41 30       	cpi	r20, 0x01	; 1
     8e8:	49 f4       	brne	.+18     	; 0x8fc <LcdPixel+0x5e>
    {
        data |= ( 0x01 << offset );
     8ea:	41 e0       	ldi	r20, 0x01	; 1
     8ec:	50 e0       	ldi	r21, 0x00	; 0
     8ee:	02 c0       	rjmp	.+4      	; 0x8f4 <LcdPixel+0x56>
     8f0:	44 0f       	add	r20, r20
     8f2:	55 1f       	adc	r21, r21
     8f4:	6a 95       	dec	r22
     8f6:	e2 f7       	brpl	.-8      	; 0x8f0 <LcdPixel+0x52>
     8f8:	24 2b       	or	r18, r20
     8fa:	0a c0       	rjmp	.+20     	; 0x910 <__stack+0x11>
    }
    // Режим PIXEL_XOR
    else if ( mode  == PIXEL_XOR )
     8fc:	42 30       	cpi	r20, 0x02	; 2
     8fe:	41 f4       	brne	.+16     	; 0x910 <__stack+0x11>
    {
        data ^= ( 0x01 << offset );
     900:	41 e0       	ldi	r20, 0x01	; 1
     902:	50 e0       	ldi	r21, 0x00	; 0
     904:	02 c0       	rjmp	.+4      	; 0x90a <__stack+0xb>
     906:	44 0f       	add	r20, r20
     908:	55 1f       	adc	r21, r21
     90a:	6a 95       	dec	r22
     90c:	e2 f7       	brpl	.-8      	; 0x906 <__stack+0x7>
     90e:	24 27       	eor	r18, r20
    }

    // Окончательный результат копируем в кэш
    LcdCache[ index ] = data;
     910:	fc 01       	movw	r30, r24
     912:	eb 59       	subi	r30, 0x9B	; 155
     914:	fe 4f       	sbci	r31, 0xFE	; 254
     916:	20 83       	st	Z, r18

    if ( index < LoWaterMark )
     918:	20 91 63 01 	lds	r18, 0x0163
     91c:	30 91 64 01 	lds	r19, 0x0164
     920:	82 17       	cp	r24, r18
     922:	93 07       	cpc	r25, r19
     924:	24 f4       	brge	.+8      	; 0x92e <__stack+0x2f>
    {
        // Обновляем нижнюю границу
        LoWaterMark = index;
     926:	90 93 64 01 	sts	0x0164, r25
     92a:	80 93 63 01 	sts	0x0163, r24
    }

    if ( index > HiWaterMark )
     92e:	20 91 61 01 	lds	r18, 0x0161
     932:	30 91 62 01 	lds	r19, 0x0162
     936:	28 17       	cp	r18, r24
     938:	39 07       	cpc	r19, r25
     93a:	54 f4       	brge	.+20     	; 0x950 <__stack+0x51>
    {
        // Обновляем верхнюю границу
        HiWaterMark = index;
     93c:	90 93 62 01 	sts	0x0162, r25
     940:	80 93 61 01 	sts	0x0161, r24
    }
    return OK;
     944:	80 e0       	ldi	r24, 0x00	; 0
     946:	08 95       	ret
    int  index;
    byte  offset;
    byte  data;

    // Защита от выхода за пределы
    if ( x >= LCD_X_RES || y >= LCD_Y_RES) return OUT_OF_BORDER;
     948:	81 e0       	ldi	r24, 0x01	; 1
     94a:	08 95       	ret
     94c:	81 e0       	ldi	r24, 0x01	; 1
     94e:	08 95       	ret
    if ( index > HiWaterMark )
    {
        // Обновляем верхнюю границу
        HiWaterMark = index;
    }
    return OK;
     950:	80 e0       	ldi	r24, 0x00	; 0
}
     952:	08 95       	ret

00000954 <LcdSingleBar>:
 *                          width  -> ширина (в пикселях)
 *                          mode   -> Off, On или Xor. Смотри enum в n3310.h
 * Возвращаемое значение :  смотри возвращаемое значение в n3310lcd.h
 */
byte LcdSingleBar ( byte baseX, byte baseY, byte height, byte width, LcdPixelMode mode )
{
     954:	bf 92       	push	r11
     956:	cf 92       	push	r12
     958:	df 92       	push	r13
     95a:	ef 92       	push	r14
     95c:	ff 92       	push	r15
     95e:	0f 93       	push	r16
     960:	1f 93       	push	r17
     962:	cf 93       	push	r28
     964:	df 93       	push	r29
    byte tmpIdxX,tmpIdxY,tmp;

    byte response;

    // Проверка границ
    if ( ( baseX >= LCD_X_RES) || ( baseY >= LCD_Y_RES) ) return OUT_OF_BORDER;
     966:	84 35       	cpi	r24, 0x54	; 84
     968:	68 f5       	brcc	.+90     	; 0x9c4 <LcdSingleBar+0x70>
     96a:	60 33       	cpi	r22, 0x30	; 48
     96c:	68 f5       	brcc	.+90     	; 0x9c8 <LcdSingleBar+0x74>

    if ( height > baseY )
     96e:	64 17       	cp	r22, r20
     970:	c0 f0       	brcs	.+48     	; 0x9a2 <LcdSingleBar+0x4e>
        tmp = 0;
    else
        tmp = baseY - height + 1;
     972:	d6 2f       	mov	r29, r22
     974:	d4 1b       	sub	r29, r20
     976:	df 5f       	subi	r29, 0xFF	; 255

    // Рисование линий
    for ( tmpIdxY = tmp; tmpIdxY <= baseY; tmpIdxY++ )
     978:	6d 17       	cp	r22, r29
     97a:	a0 f4       	brcc	.+40     	; 0x9a4 <LcdSingleBar+0x50>
     97c:	1e c0       	rjmp	.+60     	; 0x9ba <LcdSingleBar+0x66>
    {
        for ( tmpIdxX = baseX; tmpIdxX < (baseX + width); tmpIdxX++ )
     97e:	c1 2f       	mov	r28, r17
        {
            response = LcdPixel( tmpIdxX, tmpIdxY, mode );
     980:	40 2f       	mov	r20, r16
     982:	6d 2f       	mov	r22, r29
     984:	8c 2f       	mov	r24, r28
     986:	0e 94 4f 04 	call	0x89e	; 0x89e <LcdPixel>
            if(response)
     98a:	81 11       	cpse	r24, r1
     98c:	1e c0       	rjmp	.+60     	; 0x9ca <LcdSingleBar+0x76>
        tmp = baseY - height + 1;

    // Рисование линий
    for ( tmpIdxY = tmp; tmpIdxY <= baseY; tmpIdxY++ )
    {
        for ( tmpIdxX = baseX; tmpIdxX < (baseX + width); tmpIdxX++ )
     98e:	cf 5f       	subi	r28, 0xFF	; 255
     990:	2c 2f       	mov	r18, r28
     992:	30 e0       	ldi	r19, 0x00	; 0
     994:	2e 15       	cp	r18, r14
     996:	3f 05       	cpc	r19, r15
     998:	9c f3       	brlt	.-26     	; 0x980 <LcdSingleBar+0x2c>
        tmp = 0;
    else
        tmp = baseY - height + 1;

    // Рисование линий
    for ( tmpIdxY = tmp; tmpIdxY <= baseY; tmpIdxY++ )
     99a:	df 5f       	subi	r29, 0xFF	; 255
     99c:	bd 16       	cp	r11, r29
     99e:	48 f4       	brcc	.+18     	; 0x9b2 <LcdSingleBar+0x5e>
     9a0:	0c c0       	rjmp	.+24     	; 0x9ba <LcdSingleBar+0x66>

    // Проверка границ
    if ( ( baseX >= LCD_X_RES) || ( baseY >= LCD_Y_RES) ) return OUT_OF_BORDER;

    if ( height > baseY )
        tmp = 0;
     9a2:	d0 e0       	ldi	r29, 0x00	; 0
     9a4:	b6 2e       	mov	r11, r22
        tmp = baseY - height + 1;

    // Рисование линий
    for ( tmpIdxY = tmp; tmpIdxY <= baseY; tmpIdxY++ )
    {
        for ( tmpIdxX = baseX; tmpIdxX < (baseX + width); tmpIdxX++ )
     9a6:	c8 2e       	mov	r12, r24
     9a8:	d1 2c       	mov	r13, r1
     9aa:	76 01       	movw	r14, r12
     9ac:	e2 0e       	add	r14, r18
     9ae:	f1 1c       	adc	r15, r1
     9b0:	18 2f       	mov	r17, r24
     9b2:	ce 14       	cp	r12, r14
     9b4:	df 04       	cpc	r13, r15
     9b6:	1c f3       	brlt	.-58     	; 0x97e <LcdSingleBar+0x2a>
     9b8:	f0 cf       	rjmp	.-32     	; 0x99a <LcdSingleBar+0x46>

        }
    }

    // Установка флага изменений кэша
    UpdateLcd = TRUE;
     9ba:	81 e0       	ldi	r24, 0x01	; 1
     9bc:	80 93 5e 01 	sts	0x015E, r24
    return OK;
     9c0:	80 e0       	ldi	r24, 0x00	; 0
     9c2:	03 c0       	rjmp	.+6      	; 0x9ca <LcdSingleBar+0x76>
    byte tmpIdxX,tmpIdxY,tmp;

    byte response;

    // Проверка границ
    if ( ( baseX >= LCD_X_RES) || ( baseY >= LCD_Y_RES) ) return OUT_OF_BORDER;
     9c4:	81 e0       	ldi	r24, 0x01	; 1
     9c6:	01 c0       	rjmp	.+2      	; 0x9ca <LcdSingleBar+0x76>
     9c8:	81 e0       	ldi	r24, 0x01	; 1
    }

    // Установка флага изменений кэша
    UpdateLcd = TRUE;
    return OK;
}
     9ca:	df 91       	pop	r29
     9cc:	cf 91       	pop	r28
     9ce:	1f 91       	pop	r17
     9d0:	0f 91       	pop	r16
     9d2:	ff 90       	pop	r15
     9d4:	ef 90       	pop	r14
     9d6:	df 90       	pop	r13
     9d8:	cf 90       	pop	r12
     9da:	bf 90       	pop	r11
     9dc:	08 95       	ret

000009de <LcdBarsFontNumber>:
 * Аргумент(ы)           :  numb  -> цифра
 *                          baseХ  -> позиция Х (от 0 до 2) в числе вида ХХ.Х
 */

void LcdBarsFontNumber (char numb, byte baseX)
{
     9de:	0f 93       	push	r16
     9e0:	cf 93       	push	r28
     9e2:	df 93       	push	r29
	byte tmpX;
	if (baseX==0)
	{
		tmpX=14;
	}
	if (baseX==1)
     9e4:	61 30       	cpi	r22, 0x01	; 1
     9e6:	21 f0       	breq	.+8      	; 0x9f0 <LcdBarsFontNumber+0x12>
	{
		tmpX=35;
	}
	if (baseX==2)
     9e8:	62 30       	cpi	r22, 0x02	; 2
     9ea:	21 f4       	brne	.+8      	; 0x9f4 <LcdBarsFontNumber+0x16>
	{
		tmpX=60;
     9ec:	cc e3       	ldi	r28, 0x3C	; 60
     9ee:	03 c0       	rjmp	.+6      	; 0x9f6 <LcdBarsFontNumber+0x18>
	{
		tmpX=14;
	}
	if (baseX==1)
	{
		tmpX=35;
     9f0:	c3 e2       	ldi	r28, 0x23	; 35
     9f2:	01 c0       	rjmp	.+2      	; 0x9f6 <LcdBarsFontNumber+0x18>
     9f4:	ce e0       	ldi	r28, 0x0E	; 14
	if (baseX==2)
	{
		tmpX=60;
	}
	
	switch (numb)
     9f6:	48 2f       	mov	r20, r24
     9f8:	50 e0       	ldi	r21, 0x00	; 0
     9fa:	4a 30       	cpi	r20, 0x0A	; 10
     9fc:	51 05       	cpc	r21, r1
     9fe:	08 f0       	brcs	.+2      	; 0xa02 <LcdBarsFontNumber+0x24>
     a00:	24 c1       	rjmp	.+584    	; 0xc4a <LcdBarsFontNumber+0x26c>
     a02:	fa 01       	movw	r30, r20
     a04:	ec 5c       	subi	r30, 0xCC	; 204
     a06:	ff 4f       	sbci	r31, 0xFF	; 255
     a08:	0c 94 29 0d 	jmp	0x1a52	; 0x1a52 <__tablejump2__>
	{
		case 0x00: //ноль
			LcdSingleBar(tmpX+4,3,4,9,PIXEL_ON);//горизонт.
     a0c:	d4 e0       	ldi	r29, 0x04	; 4
     a0e:	dc 0f       	add	r29, r28
     a10:	01 e0       	ldi	r16, 0x01	; 1
     a12:	29 e0       	ldi	r18, 0x09	; 9
     a14:	44 e0       	ldi	r20, 0x04	; 4
     a16:	63 e0       	ldi	r22, 0x03	; 3
     a18:	8d 2f       	mov	r24, r29
     a1a:	0e 94 aa 04 	call	0x954	; 0x954 <LcdSingleBar>
			LcdSingleBar(tmpX+4,31,4,9,PIXEL_ON);//горизонт.
     a1e:	29 e0       	ldi	r18, 0x09	; 9
     a20:	44 e0       	ldi	r20, 0x04	; 4
     a22:	6f e1       	ldi	r22, 0x1F	; 31
     a24:	8d 2f       	mov	r24, r29
     a26:	0e 94 aa 04 	call	0x954	; 0x954 <LcdSingleBar>
			LcdSingleBar(tmpX+13,31,32,4,PIXEL_ON);//верт.
     a2a:	24 e0       	ldi	r18, 0x04	; 4
     a2c:	40 e2       	ldi	r20, 0x20	; 32
     a2e:	6f e1       	ldi	r22, 0x1F	; 31
     a30:	8d e0       	ldi	r24, 0x0D	; 13
     a32:	8c 0f       	add	r24, r28
     a34:	0e 94 aa 04 	call	0x954	; 0x954 <LcdSingleBar>
			LcdSingleBar(tmpX,31,32,4,PIXEL_ON);//верт.
     a38:	24 e0       	ldi	r18, 0x04	; 4
     a3a:	40 e2       	ldi	r20, 0x20	; 32
     a3c:	6f e1       	ldi	r22, 0x1F	; 31
     a3e:	8c 2f       	mov	r24, r28
     a40:	0e 94 aa 04 	call	0x954	; 0x954 <LcdSingleBar>
			//LcdSingleBar(tmpX,31,32,17,PIXEL_ON);//закрасим весь прямоугольник
			//LcdSingleBar((tmpX+4),27,24,9,PIXEL_OFF);
		break;
     a44:	02 c1       	rjmp	.+516    	; 0xc4a <LcdBarsFontNumber+0x26c>
		
		case 0x01: //единица
			//LcdSingleBar(tmpX,31,32,17,PIXEL_OFF);//очистим весь прямоугольник
			LcdSingleBar((tmpX+10),3,4,4,PIXEL_ON);
     a46:	01 e0       	ldi	r16, 0x01	; 1
     a48:	24 e0       	ldi	r18, 0x04	; 4
     a4a:	44 e0       	ldi	r20, 0x04	; 4
     a4c:	63 e0       	ldi	r22, 0x03	; 3
     a4e:	8a e0       	ldi	r24, 0x0A	; 10
     a50:	8c 0f       	add	r24, r28
     a52:	0e 94 aa 04 	call	0x954	; 0x954 <LcdSingleBar>
			LcdSingleBar((tmpX+13),31,32,4,PIXEL_ON);
     a56:	24 e0       	ldi	r18, 0x04	; 4
     a58:	40 e2       	ldi	r20, 0x20	; 32
     a5a:	6f e1       	ldi	r22, 0x1F	; 31
     a5c:	8d e0       	ldi	r24, 0x0D	; 13
     a5e:	8c 0f       	add	r24, r28
     a60:	0e 94 aa 04 	call	0x954	; 0x954 <LcdSingleBar>
		break;
     a64:	f2 c0       	rjmp	.+484    	; 0xc4a <LcdBarsFontNumber+0x26c>
		
		case 0x02: //двойка
			LcdSingleBar(tmpX,3,4,17,PIXEL_ON);//горизонт.
     a66:	01 e0       	ldi	r16, 0x01	; 1
     a68:	21 e1       	ldi	r18, 0x11	; 17
     a6a:	44 e0       	ldi	r20, 0x04	; 4
     a6c:	63 e0       	ldi	r22, 0x03	; 3
     a6e:	8c 2f       	mov	r24, r28
     a70:	0e 94 aa 04 	call	0x954	; 0x954 <LcdSingleBar>
			LcdSingleBar(tmpX,17,4,17,PIXEL_ON);//горизонт.
     a74:	21 e1       	ldi	r18, 0x11	; 17
     a76:	44 e0       	ldi	r20, 0x04	; 4
     a78:	61 e1       	ldi	r22, 0x11	; 17
     a7a:	8c 2f       	mov	r24, r28
     a7c:	0e 94 aa 04 	call	0x954	; 0x954 <LcdSingleBar>
			LcdSingleBar(tmpX,31,4,17,PIXEL_ON);//горизонт.
     a80:	21 e1       	ldi	r18, 0x11	; 17
     a82:	44 e0       	ldi	r20, 0x04	; 4
     a84:	6f e1       	ldi	r22, 0x1F	; 31
     a86:	8c 2f       	mov	r24, r28
     a88:	0e 94 aa 04 	call	0x954	; 0x954 <LcdSingleBar>
			LcdSingleBar(tmpX+13,13,10,4,PIXEL_ON);//верт.
     a8c:	24 e0       	ldi	r18, 0x04	; 4
     a8e:	4a e0       	ldi	r20, 0x0A	; 10
     a90:	6d e0       	ldi	r22, 0x0D	; 13
     a92:	8d e0       	ldi	r24, 0x0D	; 13
     a94:	8c 0f       	add	r24, r28
     a96:	0e 94 aa 04 	call	0x954	; 0x954 <LcdSingleBar>
			LcdSingleBar(tmpX,27,10,4,PIXEL_ON);
     a9a:	24 e0       	ldi	r18, 0x04	; 4
     a9c:	4a e0       	ldi	r20, 0x0A	; 10
     a9e:	6b e1       	ldi	r22, 0x1B	; 27
     aa0:	8c 2f       	mov	r24, r28
     aa2:	0e 94 aa 04 	call	0x954	; 0x954 <LcdSingleBar>
			//LcdSingleBar(tmpX,31,32,17,PIXEL_ON);//закрасим весь прямоугольник
			//LcdSingleBar(tmpX,13,10,13,PIXEL_OFF);
			//LcdSingleBar((tmpX+4),27,10,13,PIXEL_OFF);
		break;
     aa6:	d1 c0       	rjmp	.+418    	; 0xc4a <LcdBarsFontNumber+0x26c>
		
		case 0x03: //тройка
			LcdSingleBar(tmpX,3,4,17,PIXEL_ON);//горизонт.
     aa8:	01 e0       	ldi	r16, 0x01	; 1
     aaa:	21 e1       	ldi	r18, 0x11	; 17
     aac:	44 e0       	ldi	r20, 0x04	; 4
     aae:	63 e0       	ldi	r22, 0x03	; 3
     ab0:	8c 2f       	mov	r24, r28
     ab2:	0e 94 aa 04 	call	0x954	; 0x954 <LcdSingleBar>
			LcdSingleBar(tmpX+4,17,4,9,PIXEL_ON);//горизонт.
     ab6:	29 e0       	ldi	r18, 0x09	; 9
     ab8:	44 e0       	ldi	r20, 0x04	; 4
     aba:	61 e1       	ldi	r22, 0x11	; 17
     abc:	84 e0       	ldi	r24, 0x04	; 4
     abe:	8c 0f       	add	r24, r28
     ac0:	0e 94 aa 04 	call	0x954	; 0x954 <LcdSingleBar>
			LcdSingleBar(tmpX,31,4,17,PIXEL_ON);//горизонт.
     ac4:	21 e1       	ldi	r18, 0x11	; 17
     ac6:	44 e0       	ldi	r20, 0x04	; 4
     ac8:	6f e1       	ldi	r22, 0x1F	; 31
     aca:	8c 2f       	mov	r24, r28
     acc:	0e 94 aa 04 	call	0x954	; 0x954 <LcdSingleBar>
			LcdSingleBar(tmpX+13,27,24,4,PIXEL_ON);//верт.
     ad0:	24 e0       	ldi	r18, 0x04	; 4
     ad2:	48 e1       	ldi	r20, 0x18	; 24
     ad4:	6b e1       	ldi	r22, 0x1B	; 27
     ad6:	8d e0       	ldi	r24, 0x0D	; 13
     ad8:	8c 0f       	add	r24, r28
     ada:	0e 94 aa 04 	call	0x954	; 0x954 <LcdSingleBar>
			//LcdSingleBar(tmpX,31,32,17,PIXEL_ON);//закрасим весь прямоугольник
			//LcdSingleBar(tmpX,27,24,13,PIXEL_OFF);
			//LcdSingleBar((tmpX+4),17,4,9,PIXEL_ON);
		break;
     ade:	b5 c0       	rjmp	.+362    	; 0xc4a <LcdBarsFontNumber+0x26c>

		case 0x04: //четверка
			LcdSingleBar(tmpX+4,17,4,9,PIXEL_ON);//горизонт.
     ae0:	01 e0       	ldi	r16, 0x01	; 1
     ae2:	29 e0       	ldi	r18, 0x09	; 9
     ae4:	44 e0       	ldi	r20, 0x04	; 4
     ae6:	61 e1       	ldi	r22, 0x11	; 17
     ae8:	84 e0       	ldi	r24, 0x04	; 4
     aea:	8c 0f       	add	r24, r28
     aec:	0e 94 aa 04 	call	0x954	; 0x954 <LcdSingleBar>
			LcdSingleBar(tmpX,17,18,4,PIXEL_ON);//верт.
     af0:	24 e0       	ldi	r18, 0x04	; 4
     af2:	42 e1       	ldi	r20, 0x12	; 18
     af4:	61 e1       	ldi	r22, 0x11	; 17
     af6:	8c 2f       	mov	r24, r28
     af8:	0e 94 aa 04 	call	0x954	; 0x954 <LcdSingleBar>
			LcdSingleBar(tmpX+13,31,32,4,PIXEL_ON);//верт.
     afc:	24 e0       	ldi	r18, 0x04	; 4
     afe:	40 e2       	ldi	r20, 0x20	; 32
     b00:	6f e1       	ldi	r22, 0x1F	; 31
     b02:	8d e0       	ldi	r24, 0x0D	; 13
     b04:	8c 0f       	add	r24, r28
     b06:	0e 94 aa 04 	call	0x954	; 0x954 <LcdSingleBar>
			//LcdSingleBar(tmpX,31,32,17,PIXEL_ON);//закрасим весь прямоугольник
			//LcdSingleBar(tmpX,31,14,13,PIXEL_OFF);
			//LcdSingleBar((tmpX+4),13,14,9,PIXEL_OFF);
		break;
     b0a:	9f c0       	rjmp	.+318    	; 0xc4a <LcdBarsFontNumber+0x26c>
				
		case 0x05: //пятерка
			LcdSingleBar(tmpX,3,4,17,PIXEL_ON);//горизонт.
     b0c:	01 e0       	ldi	r16, 0x01	; 1
     b0e:	21 e1       	ldi	r18, 0x11	; 17
     b10:	44 e0       	ldi	r20, 0x04	; 4
     b12:	63 e0       	ldi	r22, 0x03	; 3
     b14:	8c 2f       	mov	r24, r28
     b16:	0e 94 aa 04 	call	0x954	; 0x954 <LcdSingleBar>
			LcdSingleBar(tmpX,17,4,17,PIXEL_ON);//горизонт.
     b1a:	21 e1       	ldi	r18, 0x11	; 17
     b1c:	44 e0       	ldi	r20, 0x04	; 4
     b1e:	61 e1       	ldi	r22, 0x11	; 17
     b20:	8c 2f       	mov	r24, r28
     b22:	0e 94 aa 04 	call	0x954	; 0x954 <LcdSingleBar>
			LcdSingleBar(tmpX,31,4,17,PIXEL_ON);//горизонт.
     b26:	21 e1       	ldi	r18, 0x11	; 17
     b28:	44 e0       	ldi	r20, 0x04	; 4
     b2a:	6f e1       	ldi	r22, 0x1F	; 31
     b2c:	8c 2f       	mov	r24, r28
     b2e:	0e 94 aa 04 	call	0x954	; 0x954 <LcdSingleBar>
			LcdSingleBar(tmpX+13,27,10,4,PIXEL_ON);//верт.
     b32:	24 e0       	ldi	r18, 0x04	; 4
     b34:	4a e0       	ldi	r20, 0x0A	; 10
     b36:	6b e1       	ldi	r22, 0x1B	; 27
     b38:	8d e0       	ldi	r24, 0x0D	; 13
     b3a:	8c 0f       	add	r24, r28
     b3c:	0e 94 aa 04 	call	0x954	; 0x954 <LcdSingleBar>
			LcdSingleBar(tmpX,13,10,4,PIXEL_ON);//верт.
     b40:	24 e0       	ldi	r18, 0x04	; 4
     b42:	4a e0       	ldi	r20, 0x0A	; 10
     b44:	6d e0       	ldi	r22, 0x0D	; 13
     b46:	8c 2f       	mov	r24, r28
     b48:	0e 94 aa 04 	call	0x954	; 0x954 <LcdSingleBar>
			//LcdSingleBar(tmpX,31,32,17,PIXEL_ON);//закрасим весь прямоугольник
			//LcdSingleBar((tmpX+4),13,10,13,PIXEL_OFF);
			//LcdSingleBar((tmpX),27,10,13,PIXEL_OFF);
		break;
     b4c:	7e c0       	rjmp	.+252    	; 0xc4a <LcdBarsFontNumber+0x26c>
			
		case 0x06: //шестерка
			LcdSingleBar(tmpX+4,3,4,13,PIXEL_ON);//горизонт.
     b4e:	d4 e0       	ldi	r29, 0x04	; 4
     b50:	dc 0f       	add	r29, r28
     b52:	01 e0       	ldi	r16, 0x01	; 1
     b54:	2d e0       	ldi	r18, 0x0D	; 13
     b56:	44 e0       	ldi	r20, 0x04	; 4
     b58:	63 e0       	ldi	r22, 0x03	; 3
     b5a:	8d 2f       	mov	r24, r29
     b5c:	0e 94 aa 04 	call	0x954	; 0x954 <LcdSingleBar>
			LcdSingleBar(tmpX+4,17,4,13,PIXEL_ON);//горизонт.
     b60:	2d e0       	ldi	r18, 0x0D	; 13
     b62:	44 e0       	ldi	r20, 0x04	; 4
     b64:	61 e1       	ldi	r22, 0x11	; 17
     b66:	8d 2f       	mov	r24, r29
     b68:	0e 94 aa 04 	call	0x954	; 0x954 <LcdSingleBar>
			LcdSingleBar(tmpX+4,31,4,13,PIXEL_ON);//горизонт.
     b6c:	2d e0       	ldi	r18, 0x0D	; 13
     b6e:	44 e0       	ldi	r20, 0x04	; 4
     b70:	6f e1       	ldi	r22, 0x1F	; 31
     b72:	8d 2f       	mov	r24, r29
     b74:	0e 94 aa 04 	call	0x954	; 0x954 <LcdSingleBar>
			LcdSingleBar(tmpX+13,27,10,4,PIXEL_ON);//верт.
     b78:	24 e0       	ldi	r18, 0x04	; 4
     b7a:	4a e0       	ldi	r20, 0x0A	; 10
     b7c:	6b e1       	ldi	r22, 0x1B	; 27
     b7e:	8d e0       	ldi	r24, 0x0D	; 13
     b80:	8c 0f       	add	r24, r28
     b82:	0e 94 aa 04 	call	0x954	; 0x954 <LcdSingleBar>
			LcdSingleBar(tmpX,31,32,4,PIXEL_ON);//верт.
     b86:	24 e0       	ldi	r18, 0x04	; 4
     b88:	40 e2       	ldi	r20, 0x20	; 32
     b8a:	6f e1       	ldi	r22, 0x1F	; 31
     b8c:	8c 2f       	mov	r24, r28
     b8e:	0e 94 aa 04 	call	0x954	; 0x954 <LcdSingleBar>
			//LcdSingleBar(tmpX,31,32,17,PIXEL_ON);//закрасим весь прямоугольник
			//LcdSingleBar((tmpX+4),13,10,13,PIXEL_OFF);
			//LcdSingleBar((tmpX+4),27,10,9,PIXEL_OFF);
		break;
     b92:	5b c0       	rjmp	.+182    	; 0xc4a <LcdBarsFontNumber+0x26c>
				
		case 0x07: //семерка
			LcdSingleBar(tmpX+4,3,4,9,PIXEL_ON);//горизонт.
     b94:	01 e0       	ldi	r16, 0x01	; 1
     b96:	29 e0       	ldi	r18, 0x09	; 9
     b98:	44 e0       	ldi	r20, 0x04	; 4
     b9a:	63 e0       	ldi	r22, 0x03	; 3
     b9c:	84 e0       	ldi	r24, 0x04	; 4
     b9e:	8c 0f       	add	r24, r28
     ba0:	0e 94 aa 04 	call	0x954	; 0x954 <LcdSingleBar>
			LcdSingleBar(tmpX+13,31,32,4,PIXEL_ON);//верт.
     ba4:	24 e0       	ldi	r18, 0x04	; 4
     ba6:	40 e2       	ldi	r20, 0x20	; 32
     ba8:	6f e1       	ldi	r22, 0x1F	; 31
     baa:	8d e0       	ldi	r24, 0x0D	; 13
     bac:	8c 0f       	add	r24, r28
     bae:	0e 94 aa 04 	call	0x954	; 0x954 <LcdSingleBar>
			LcdSingleBar(tmpX,7,8,4,PIXEL_ON);//верт.
     bb2:	24 e0       	ldi	r18, 0x04	; 4
     bb4:	48 e0       	ldi	r20, 0x08	; 8
     bb6:	67 e0       	ldi	r22, 0x07	; 7
     bb8:	8c 2f       	mov	r24, r28
     bba:	0e 94 aa 04 	call	0x954	; 0x954 <LcdSingleBar>
			//LcdSingleBar(tmpX,31,32,17,PIXEL_ON);//закрасим весь прямоугольник
			//LcdSingleBar((tmpX),31,28,13,PIXEL_OFF);
			//LcdSingleBar((tmpX),7,4,4,PIXEL_ON);
		break;
     bbe:	45 c0       	rjmp	.+138    	; 0xc4a <LcdBarsFontNumber+0x26c>
				
		case 0x08: //восьмерка
			LcdSingleBar(tmpX+4,3,4,9,PIXEL_ON);//горизонт.
     bc0:	d4 e0       	ldi	r29, 0x04	; 4
     bc2:	dc 0f       	add	r29, r28
     bc4:	01 e0       	ldi	r16, 0x01	; 1
     bc6:	29 e0       	ldi	r18, 0x09	; 9
     bc8:	44 e0       	ldi	r20, 0x04	; 4
     bca:	63 e0       	ldi	r22, 0x03	; 3
     bcc:	8d 2f       	mov	r24, r29
     bce:	0e 94 aa 04 	call	0x954	; 0x954 <LcdSingleBar>
			LcdSingleBar(tmpX+4,17,4,9,PIXEL_ON);//горизонт.
     bd2:	29 e0       	ldi	r18, 0x09	; 9
     bd4:	44 e0       	ldi	r20, 0x04	; 4
     bd6:	61 e1       	ldi	r22, 0x11	; 17
     bd8:	8d 2f       	mov	r24, r29
     bda:	0e 94 aa 04 	call	0x954	; 0x954 <LcdSingleBar>
			LcdSingleBar(tmpX+4,31,4,9,PIXEL_ON);//горизонт.
     bde:	29 e0       	ldi	r18, 0x09	; 9
     be0:	44 e0       	ldi	r20, 0x04	; 4
     be2:	6f e1       	ldi	r22, 0x1F	; 31
     be4:	8d 2f       	mov	r24, r29
     be6:	0e 94 aa 04 	call	0x954	; 0x954 <LcdSingleBar>
			LcdSingleBar(tmpX+13,31,32,4,PIXEL_ON);//верт.
     bea:	24 e0       	ldi	r18, 0x04	; 4
     bec:	40 e2       	ldi	r20, 0x20	; 32
     bee:	6f e1       	ldi	r22, 0x1F	; 31
     bf0:	8d e0       	ldi	r24, 0x0D	; 13
     bf2:	8c 0f       	add	r24, r28
     bf4:	0e 94 aa 04 	call	0x954	; 0x954 <LcdSingleBar>
			LcdSingleBar(tmpX,31,32,4,PIXEL_ON);//верт.
     bf8:	24 e0       	ldi	r18, 0x04	; 4
     bfa:	40 e2       	ldi	r20, 0x20	; 32
     bfc:	6f e1       	ldi	r22, 0x1F	; 31
     bfe:	8c 2f       	mov	r24, r28
     c00:	0e 94 aa 04 	call	0x954	; 0x954 <LcdSingleBar>
			//LcdSingleBar(tmpX,31,32,17,PIXEL_ON);//закрасим весь прямоугольник
			//LcdSingleBar((tmpX+4),13,10,9,PIXEL_OFF);
			//LcdSingleBar((tmpX+4),27,10,9,PIXEL_OFF);
		break;		
     c04:	22 c0       	rjmp	.+68     	; 0xc4a <LcdBarsFontNumber+0x26c>
		
		case 0x09: //девятка
			LcdSingleBar(tmpX+4,3,4,9,PIXEL_ON);//горизонт.
     c06:	d4 e0       	ldi	r29, 0x04	; 4
     c08:	dc 0f       	add	r29, r28
     c0a:	01 e0       	ldi	r16, 0x01	; 1
     c0c:	29 e0       	ldi	r18, 0x09	; 9
     c0e:	44 e0       	ldi	r20, 0x04	; 4
     c10:	63 e0       	ldi	r22, 0x03	; 3
     c12:	8d 2f       	mov	r24, r29
     c14:	0e 94 aa 04 	call	0x954	; 0x954 <LcdSingleBar>
			LcdSingleBar(tmpX+4,17,4,9,PIXEL_ON);//горизонт.
     c18:	29 e0       	ldi	r18, 0x09	; 9
     c1a:	44 e0       	ldi	r20, 0x04	; 4
     c1c:	61 e1       	ldi	r22, 0x11	; 17
     c1e:	8d 2f       	mov	r24, r29
     c20:	0e 94 aa 04 	call	0x954	; 0x954 <LcdSingleBar>
			LcdSingleBar(tmpX,31,4,13,PIXEL_ON);//горизонт.
     c24:	2d e0       	ldi	r18, 0x0D	; 13
     c26:	44 e0       	ldi	r20, 0x04	; 4
     c28:	6f e1       	ldi	r22, 0x1F	; 31
     c2a:	8c 2f       	mov	r24, r28
     c2c:	0e 94 aa 04 	call	0x954	; 0x954 <LcdSingleBar>
			LcdSingleBar(tmpX+13,31,32,4,PIXEL_ON);//верт.
     c30:	24 e0       	ldi	r18, 0x04	; 4
     c32:	40 e2       	ldi	r20, 0x20	; 32
     c34:	6f e1       	ldi	r22, 0x1F	; 31
     c36:	8d e0       	ldi	r24, 0x0D	; 13
     c38:	8c 0f       	add	r24, r28
     c3a:	0e 94 aa 04 	call	0x954	; 0x954 <LcdSingleBar>
			LcdSingleBar(tmpX,17,18,4,PIXEL_ON);//верт.
     c3e:	24 e0       	ldi	r18, 0x04	; 4
     c40:	42 e1       	ldi	r20, 0x12	; 18
     c42:	61 e1       	ldi	r22, 0x11	; 17
     c44:	8c 2f       	mov	r24, r28
     c46:	0e 94 aa 04 	call	0x954	; 0x954 <LcdSingleBar>
				
		default:
		break;
	}
	
}
     c4a:	df 91       	pop	r29
     c4c:	cf 91       	pop	r28
     c4e:	0f 91       	pop	r16
     c50:	08 95       	ret

00000c52 <__vector_24>:

/****************************************************************************
 Обработчик прерывания TWI модуля
****************************************************************************/
ISR(TWI_vect)
{
     c52:	1f 92       	push	r1
     c54:	0f 92       	push	r0
     c56:	0f b6       	in	r0, 0x3f	; 63
     c58:	0f 92       	push	r0
     c5a:	11 24       	eor	r1, r1
     c5c:	2f 93       	push	r18
     c5e:	3f 93       	push	r19
     c60:	8f 93       	push	r24
     c62:	9f 93       	push	r25
     c64:	af 93       	push	r26
     c66:	bf 93       	push	r27
     c68:	ef 93       	push	r30
     c6a:	ff 93       	push	r31
  static uint8_t ptr;
  uint8_t stat = TWSR & TWSR_MASK;
     c6c:	20 91 b9 00 	lds	r18, 0x00B9
     c70:	2c 7f       	andi	r18, 0xFC	; 252
  
  switch (stat){
     c72:	82 2f       	mov	r24, r18
     c74:	90 e0       	ldi	r25, 0x00	; 0
     c76:	fc 01       	movw	r30, r24
     c78:	38 97       	sbiw	r30, 0x08	; 8
     c7a:	e1 35       	cpi	r30, 0x51	; 81
     c7c:	f1 05       	cpc	r31, r1
     c7e:	08 f0       	brcs	.+2      	; 0xc82 <__vector_24+0x30>
     c80:	53 c0       	rjmp	.+166    	; 0xd28 <__vector_24+0xd6>
     c82:	e2 5c       	subi	r30, 0xC2	; 194
     c84:	ff 4f       	sbci	r31, 0xFF	; 255
     c86:	0c 94 29 0d 	jmp	0x1a52	; 0x1a52 <__tablejump2__>
    
    case TWI_START:                   // состояние START сформировано 
    case TWI_REP_START:               // состояние повторный START сформировано        
       ptr = 0;      
     c8a:	10 92 5d 03 	sts	0x035D, r1

    case TWI_MTX_ADR_ACK:             // был передан пакет SLA+W и получено подтверждение
    case TWI_MTX_DATA_ACK:            // был передан байт данных и получено подтверждение  
       if (ptr < twiMsgSize){
     c8e:	e0 91 5d 03 	lds	r30, 0x035D
     c92:	80 91 5e 03 	lds	r24, 0x035E
     c96:	e8 17       	cp	r30, r24
     c98:	78 f4       	brcc	.+30     	; 0xcb8 <__vector_24+0x66>
          TWDR = twiBuf[ptr];                    //загружаем в регистр данных следующий байт
     c9a:	f0 e0       	ldi	r31, 0x00	; 0
     c9c:	e1 5a       	subi	r30, 0xA1	; 161
     c9e:	fc 4f       	sbci	r31, 0xFC	; 252
     ca0:	80 81       	ld	r24, Z
     ca2:	80 93 bb 00 	sts	0x00BB, r24
          TWCR = (1<<TWEN)|(1<<TWIE)|(1<<TWINT); //сбрасываем флаг TWINT    
     ca6:	85 e8       	ldi	r24, 0x85	; 133
     ca8:	80 93 bc 00 	sts	0x00BC, r24
          ptr++;
     cac:	80 91 5d 03 	lds	r24, 0x035D
     cb0:	8f 5f       	subi	r24, 0xFF	; 255
     cb2:	80 93 5d 03 	sts	0x035D, r24
     cb6:	3d c0       	rjmp	.+122    	; 0xd32 <__vector_24+0xe0>
       }
       else{
          twiState = TWI_SUCCESS;  
     cb8:	8f ef       	ldi	r24, 0xFF	; 255
     cba:	80 93 00 01 	sts	0x0100, r24
          TWCR = (1<<TWEN)|(1<<TWINT)|(1<<TWSTO)|(0<<TWIE); //формируем состояние СТОП, сбрасываем флаг, запрещаем прерывания
     cbe:	84 e9       	ldi	r24, 0x94	; 148
     cc0:	80 93 bc 00 	sts	0x00BC, r24
     cc4:	36 c0       	rjmp	.+108    	; 0xd32 <__vector_24+0xe0>
       }
       break;
     
    case TWI_MRX_DATA_ACK:          //байт данных принят и передано подтверждение  
       twiBuf[ptr] = TWDR;
     cc6:	80 91 5d 03 	lds	r24, 0x035D
     cca:	e8 2f       	mov	r30, r24
     ccc:	f0 e0       	ldi	r31, 0x00	; 0
     cce:	90 91 bb 00 	lds	r25, 0x00BB
     cd2:	e1 5a       	subi	r30, 0xA1	; 161
     cd4:	fc 4f       	sbci	r31, 0xFC	; 252
     cd6:	90 83       	st	Z, r25
       ptr++;
     cd8:	8f 5f       	subi	r24, 0xFF	; 255
     cda:	80 93 5d 03 	sts	0x035D, r24
    
    case TWI_MRX_ADR_ACK:           //был передан пакет SLA+R и получено подтвеждение  
      if (ptr < (twiMsgSize-1)){
     cde:	80 91 5e 03 	lds	r24, 0x035E
     ce2:	20 91 5d 03 	lds	r18, 0x035D
     ce6:	30 e0       	ldi	r19, 0x00	; 0
     ce8:	90 e0       	ldi	r25, 0x00	; 0
     cea:	01 97       	sbiw	r24, 0x01	; 1
     cec:	28 17       	cp	r18, r24
     cee:	39 07       	cpc	r19, r25
     cf0:	24 f4       	brge	.+8      	; 0xcfa <__vector_24+0xa8>
        TWCR = (1<<TWEN)|(1<<TWIE)|(1<<TWINT)|(1<<TWEA);  //если это не предпоследний принятый байт, формируем подтверждение                             
     cf2:	85 ec       	ldi	r24, 0xC5	; 197
     cf4:	80 93 bc 00 	sts	0x00BC, r24
     cf8:	1c c0       	rjmp	.+56     	; 0xd32 <__vector_24+0xe0>
      }
      else {
        TWCR = (1<<TWEN)|(1<<TWIE)|(1<<TWINT);            //если приняли предпоследний байт, подтверждение не формируем
     cfa:	85 e8       	ldi	r24, 0x85	; 133
     cfc:	80 93 bc 00 	sts	0x00BC, r24
     d00:	18 c0       	rjmp	.+48     	; 0xd32 <__vector_24+0xe0>
      }    
      break; 
      
    case TWI_MRX_DATA_NACK:       //был принят байт данных без подтверждения      
      twiBuf[ptr] = TWDR;
     d02:	e0 91 5d 03 	lds	r30, 0x035D
     d06:	f0 e0       	ldi	r31, 0x00	; 0
     d08:	80 91 bb 00 	lds	r24, 0x00BB
     d0c:	e1 5a       	subi	r30, 0xA1	; 161
     d0e:	fc 4f       	sbci	r31, 0xFC	; 252
     d10:	80 83       	st	Z, r24
      twiState = TWI_SUCCESS;  
     d12:	8f ef       	ldi	r24, 0xFF	; 255
     d14:	80 93 00 01 	sts	0x0100, r24
      TWCR = (1<<TWEN)|(1<<TWINT)|(1<<TWSTO); //формируем состояние стоп
     d18:	84 e9       	ldi	r24, 0x94	; 148
     d1a:	80 93 bc 00 	sts	0x00BC, r24
      break; 
     d1e:	09 c0       	rjmp	.+18     	; 0xd32 <__vector_24+0xe0>
     
    case TWI_ARB_LOST:          //был потерян приоритет 
      TWCR = (1<<TWEN)|(1<<TWIE)|(1<<TWINT)|(1<<TWSTA); // сбрасываем флаг TWINT, формируем повторный СТАРТ
     d20:	85 ea       	ldi	r24, 0xA5	; 165
     d22:	80 93 bc 00 	sts	0x00BC, r24
      break;
     d26:	05 c0       	rjmp	.+10     	; 0xd32 <__vector_24+0xe0>
    case TWI_MTX_ADR_NACK:      // был передан пает SLA+W и не получено подтверждение
    case TWI_MRX_ADR_NACK:      // был передан пакет SLA+R и не получено подтверждение    
    case TWI_MTX_DATA_NACK:     // был передан байт данных и не получено подтверждение
    case TWI_BUS_ERROR:         // ошибка на шине из-за некоректных состояний СТАРТ или СТОП
    default:     
      twiState = stat;                                                                                    
     d28:	20 93 00 01 	sts	0x0100, r18
      TWCR = (1<<TWEN)|(0<<TWIE)|(0<<TWINT)|(0<<TWEA)|(0<<TWSTA)|(0<<TWSTO)|(0<<TWWC); //запретить прерывание                              
     d2c:	84 e0       	ldi	r24, 0x04	; 4
     d2e:	80 93 bc 00 	sts	0x00BC, r24
  }
}
     d32:	ff 91       	pop	r31
     d34:	ef 91       	pop	r30
     d36:	bf 91       	pop	r27
     d38:	af 91       	pop	r26
     d3a:	9f 91       	pop	r25
     d3c:	8f 91       	pop	r24
     d3e:	3f 91       	pop	r19
     d40:	2f 91       	pop	r18
     d42:	0f 90       	pop	r0
     d44:	0f be       	out	0x3f, r0	; 63
     d46:	0f 90       	pop	r0
     d48:	1f 90       	pop	r1
     d4a:	18 95       	reti

00000d4c <ADC_init>:
         //ADMUX = 0b00000000;
         //ADCSRA = 0x8D;
		 //источник ИОН AREF - (0<<REFS1)|(0<<REFS0) 2,56 В
		 //Если ADLAR = 1, то результат преобразования будет иметь левосторонний формат, в противном случае - правосторонний
		 //Канал ADC - ADC2 (0<<MUX3)|(0<<MUX2)|(1<<MUX1)|(0<<MUX0)
		 ADMUX = (1<<REFS1)|(1<<REFS0)|(1<<ADLAR)|(0<<MUX3)|(0<<MUX2)|(1<<MUX1)|(0<<MUX0);
     d4c:	82 ee       	ldi	r24, 0xE2	; 226
     d4e:	80 93 7c 00 	sts	0x007C, r24
		//разрешаем преобразование, не запускаем его без прерывания по завершению и предделителем 4
		 ADCSRA =(1<<ADEN)|(0<<ADSC)|(0<<ADATE)|(0<<ADIF)|(0<<ADIE)|(0<<ADPS2)|(1<<ADPS1)|(0<<ADPS0);
     d52:	82 e8       	ldi	r24, 0x82	; 130
     d54:	80 93 7a 00 	sts	0x007A, r24
     d58:	08 95       	ret

00000d5a <ADC_V_batt>:
	 
}

 
void ADC_V_batt()
{  //АЦП напряжения питания
     d5a:	cf 93       	push	r28
     d5c:	df 93       	push	r29
//#if MODE_OF_OPERATION==4 //уличный датчик №2	
#if ADC_IS_USED==1
	
//KEY_V_BAT_ON();//подаем питание на резисторный делитель на время преобразавния
	//Канал ADC - ADC2 (0<<MUX3)|(0<<MUX2)|(1<<MUX1)|(0<<MUX0)
	ADMUX = (0<<REFS1)|(1<<REFS0)|(1<<ADLAR)|(0<<MUX3)|(0<<MUX2)|(1<<MUX1)|(0<<MUX0);
     d5e:	82 e6       	ldi	r24, 0x62	; 98
     d60:	80 93 7c 00 	sts	0x007C, r24
 *
 * \param prescaler   ADC clock prescaler
 */
static inline void adc_init(enum adc_prescaler prescaler)
{
	ADCSRA = (uint8_t)prescaler | (1 << ADEN);
     d64:	86 e8       	ldi	r24, 0x86	; 134
     d66:	80 93 7a 00 	sts	0x007A, r24
	adc_init(ADC_PRESCALER_DIV64);
	adc_bat_res_i=0;//обнулим предидущий результат ацп
     d6a:	10 92 83 03 	sts	0x0383, r1
     d6e:	10 92 82 03 	sts	0x0382, r1
	for (i=1;i<=ADC_CYCLES_NUMBER;i++)
     d72:	81 e0       	ldi	r24, 0x01	; 1
     d74:	80 93 73 03 	sts	0x0373, r24
}

/*  \brief Enable ADC */
static inline void adc_enable(void)
{
	ADCSRA |= (1 << ADEN);
     d78:	ea e7       	ldi	r30, 0x7A	; 122
     d7a:	f0 e0       	ldi	r31, 0x00	; 0
		ADCSRB &= ~(1 << MUX5);
	}

	ADMUX = ((uint8_t)input & ADC_MUX_MASK) | (uint8_t)vref;
#else
	ADMUX = (uint8_t)input | (uint8_t)vref;
     d7c:	cc e7       	ldi	r28, 0x7C	; 124
     d7e:	d0 e0       	ldi	r29, 0x00	; 0
     d80:	42 e4       	ldi	r20, 0x42	; 66
	ADCSRA |= (1 << ADSC);

	while ((ADCSRA & (1 << ADSC))) {
		/* wait for conversion complete */
	}
	return ADC;
     d82:	a8 e7       	ldi	r26, 0x78	; 120
     d84:	b0 e0       	ldi	r27, 0x00	; 0
}

/*  \brief Enable ADC */
static inline void adc_enable(void)
{
	ADCSRA |= (1 << ADEN);
     d86:	80 81       	ld	r24, Z
     d88:	80 68       	ori	r24, 0x80	; 128
     d8a:	80 83       	st	Z, r24
		ADCSRB &= ~(1 << MUX5);
	}

	ADMUX = ((uint8_t)input & ADC_MUX_MASK) | (uint8_t)vref;
#else
	ADMUX = (uint8_t)input | (uint8_t)vref;
     d8c:	48 83       	st	Y, r20
#endif
	ADCSRA |= (1 << ADSC);
     d8e:	80 81       	ld	r24, Z
     d90:	80 64       	ori	r24, 0x40	; 64
     d92:	80 83       	st	Z, r24

	while ((ADCSRA & (1 << ADSC))) {
     d94:	80 81       	ld	r24, Z
     d96:	86 fd       	sbrc	r24, 6
     d98:	fd cf       	rjmp	.-6      	; 0xd94 <ADC_V_batt+0x3a>
		/* wait for conversion complete */
	}
	return ADC;
     d9a:	8d 91       	ld	r24, X+
     d9c:	9c 91       	ld	r25, X
     d9e:	11 97       	sbiw	r26, 0x01	; 1
	{
		adc_enable();
		adc_bat_res_i=adc_bat_res_i+adc_read_10bit(ADC_MUX_ADC2,ADC_VREF_AVCC);
     da0:	20 91 82 03 	lds	r18, 0x0382
     da4:	30 91 83 03 	lds	r19, 0x0383
     da8:	82 0f       	add	r24, r18
     daa:	93 1f       	adc	r25, r19
     dac:	90 93 83 03 	sts	0x0383, r25
     db0:	80 93 82 03 	sts	0x0382, r24
}

/*  \brief Disable ADC */
static inline void adc_disable(void)
{
	ADCSRA &= ~(1 << ADEN);
     db4:	80 81       	ld	r24, Z
     db6:	8f 77       	andi	r24, 0x7F	; 127
     db8:	80 83       	st	Z, r24
//KEY_V_BAT_ON();//подаем питание на резисторный делитель на время преобразавния
	//Канал ADC - ADC2 (0<<MUX3)|(0<<MUX2)|(1<<MUX1)|(0<<MUX0)
	ADMUX = (0<<REFS1)|(1<<REFS0)|(1<<ADLAR)|(0<<MUX3)|(0<<MUX2)|(1<<MUX1)|(0<<MUX0);
	adc_init(ADC_PRESCALER_DIV64);
	adc_bat_res_i=0;//обнулим предидущий результат ацп
	for (i=1;i<=ADC_CYCLES_NUMBER;i++)
     dba:	80 91 73 03 	lds	r24, 0x0373
     dbe:	8f 5f       	subi	r24, 0xFF	; 255
     dc0:	80 93 73 03 	sts	0x0373, r24
     dc4:	81 32       	cpi	r24, 0x21	; 33
     dc6:	f8 f2       	brcs	.-66     	; 0xd86 <ADC_V_batt+0x2c>
		//while((ADCSRA & 0x10)==0);//ждем, пока АЦП закончит преобразование (ADIF = 0)
		//ADCSRA=(1<<ADIF);//устанавливаем ADIF
		//adc_bat_res_i=adc_bat_res_i+ADCH;
		//ADCSRA =(0<<ADEN)|(0<<ADSC)|(0<<ADATE)|(1<<ADIF)|(0<<ADIE); //выключаем ADC он нам пока не нужен
	}
	adc_bat_res_i32=adc_bat_res_i/ADC_CYCLES_NUMBER;
     dc8:	20 91 82 03 	lds	r18, 0x0382
     dcc:	30 91 83 03 	lds	r19, 0x0383
     dd0:	36 95       	lsr	r19
     dd2:	27 95       	ror	r18
     dd4:	32 95       	swap	r19
     dd6:	22 95       	swap	r18
     dd8:	2f 70       	andi	r18, 0x0F	; 15
     dda:	23 27       	eor	r18, r19
     ddc:	3f 70       	andi	r19, 0x0F	; 15
     dde:	23 27       	eor	r18, r19
	adc_bat_res_i32=adc_bat_res_i32*414;
     de0:	ae e9       	ldi	r26, 0x9E	; 158
     de2:	b1 e0       	ldi	r27, 0x01	; 1
     de4:	0e 94 2f 0d 	call	0x1a5e	; 0x1a5e <__umulhisi3>
	adc_bat_res_i32=adc_bat_res_i32/64;
     de8:	dc 01       	movw	r26, r24
     dea:	cb 01       	movw	r24, r22
     dec:	68 94       	set
     dee:	15 f8       	bld	r1, 5
     df0:	b6 95       	lsr	r27
     df2:	a7 95       	ror	r26
     df4:	97 95       	ror	r25
     df6:	87 95       	ror	r24
     df8:	16 94       	lsr	r1
     dfa:	d1 f7       	brne	.-12     	; 0xdf0 <ADC_V_batt+0x96>
     dfc:	80 93 7a 03 	sts	0x037A, r24
     e00:	90 93 7b 03 	sts	0x037B, r25
     e04:	a0 93 7c 03 	sts	0x037C, r26
     e08:	b0 93 7d 03 	sts	0x037D, r27
	//adc_bat_res_i32=adc_bat_res_i32/16;
	
//KEY_V_BAT_OFF();	//снимаем питание с делителя
//**********************Освещение****************//	
	KEY_LIGHT_ON();//подаем питание на резисторный делитель на время преобразавния
     e0c:	5b 9a       	sbi	0x0b, 3	; 11

	//adc_i++;//увеличим счетчик количества преобразований ацп
	
	adc_light_res_i=0;//обнулим предидущий результат ацп
     e0e:	10 92 85 03 	sts	0x0385, r1
     e12:	10 92 84 03 	sts	0x0384, r1
 *
 * \param prescaler   ADC clock prescaler
 */
static inline void adc_init(enum adc_prescaler prescaler)
{
	ADCSRA = (uint8_t)prescaler | (1 << ADEN);
     e16:	86 e8       	ldi	r24, 0x86	; 134
     e18:	80 93 7a 00 	sts	0x007A, r24
	adc_init(ADC_PRESCALER_DIV64);
	for (i=1;i<=ADC_CYCLES_NUMBER;i++)
     e1c:	81 e0       	ldi	r24, 0x01	; 1
     e1e:	80 93 73 03 	sts	0x0373, r24
}

/*  \brief Enable ADC */
static inline void adc_enable(void)
{
	ADCSRA |= (1 << ADEN);
     e22:	ea e7       	ldi	r30, 0x7A	; 122
     e24:	f0 e0       	ldi	r31, 0x00	; 0
		ADCSRB &= ~(1 << MUX5);
	}

	ADMUX = ((uint8_t)input & ADC_MUX_MASK) | (uint8_t)vref;
#else
	ADMUX = (uint8_t)input | (uint8_t)vref;
     e26:	cc e7       	ldi	r28, 0x7C	; 124
     e28:	d0 e0       	ldi	r29, 0x00	; 0
     e2a:	46 e4       	ldi	r20, 0x46	; 70
	ADCSRA |= (1 << ADSC);

	while ((ADCSRA & (1 << ADSC))) {
		/* wait for conversion complete */
	}
	return ADC;
     e2c:	a8 e7       	ldi	r26, 0x78	; 120
     e2e:	b0 e0       	ldi	r27, 0x00	; 0
}

/*  \brief Enable ADC */
static inline void adc_enable(void)
{
	ADCSRA |= (1 << ADEN);
     e30:	80 81       	ld	r24, Z
     e32:	80 68       	ori	r24, 0x80	; 128
     e34:	80 83       	st	Z, r24
		ADCSRB &= ~(1 << MUX5);
	}

	ADMUX = ((uint8_t)input & ADC_MUX_MASK) | (uint8_t)vref;
#else
	ADMUX = (uint8_t)input | (uint8_t)vref;
     e36:	48 83       	st	Y, r20
#endif
	ADCSRA |= (1 << ADSC);
     e38:	80 81       	ld	r24, Z
     e3a:	80 64       	ori	r24, 0x40	; 64
     e3c:	80 83       	st	Z, r24

	while ((ADCSRA & (1 << ADSC))) {
     e3e:	80 81       	ld	r24, Z
     e40:	86 fd       	sbrc	r24, 6
     e42:	fd cf       	rjmp	.-6      	; 0xe3e <ADC_V_batt+0xe4>
		/* wait for conversion complete */
	}
	return ADC;
     e44:	8d 91       	ld	r24, X+
     e46:	9c 91       	ld	r25, X
     e48:	11 97       	sbiw	r26, 0x01	; 1
	{
		adc_enable();
		adc_light_res_i=adc_light_res_i+adc_read_10bit(ADC_MUX_ADC6,ADC_VREF_AVCC);
     e4a:	20 91 84 03 	lds	r18, 0x0384
     e4e:	30 91 85 03 	lds	r19, 0x0385
     e52:	82 0f       	add	r24, r18
     e54:	93 1f       	adc	r25, r19
     e56:	90 93 85 03 	sts	0x0385, r25
     e5a:	80 93 84 03 	sts	0x0384, r24
}

/*  \brief Disable ADC */
static inline void adc_disable(void)
{
	ADCSRA &= ~(1 << ADEN);
     e5e:	80 81       	ld	r24, Z
     e60:	8f 77       	andi	r24, 0x7F	; 127
     e62:	80 83       	st	Z, r24

	//adc_i++;//увеличим счетчик количества преобразований ацп
	
	adc_light_res_i=0;//обнулим предидущий результат ацп
	adc_init(ADC_PRESCALER_DIV64);
	for (i=1;i<=ADC_CYCLES_NUMBER;i++)
     e64:	80 91 73 03 	lds	r24, 0x0373
     e68:	8f 5f       	subi	r24, 0xFF	; 255
     e6a:	80 93 73 03 	sts	0x0373, r24
     e6e:	81 32       	cpi	r24, 0x21	; 33
     e70:	f8 f2       	brcs	.-66     	; 0xe30 <ADC_V_batt+0xd6>
		//while((ADCSRA & 0x10)==0);//ждем, пока АЦП закончит преобразование (ADIF = 0)
		//ADCSRA=(1<<ADIF);//устанавливаем ADIF
		//adc_light_res_i=adc_light_res_i+ADCH;
		//ADCSRA =(0<<ADEN)|(0<<ADSC)|(0<<ADATE)|(1<<ADIF)|(0<<ADIE); //выключаем ADC он нам пока не нужен
	}
	KEY_LIGHT_OFF();	//снимаем питание с делителя
     e72:	5b 98       	cbi	0x0b, 3	; 11
	adc_light_res_mV=adc_light_res_i/ADC_CYCLES_NUMBER;
     e74:	80 91 84 03 	lds	r24, 0x0384
     e78:	90 91 85 03 	lds	r25, 0x0385
     e7c:	96 95       	lsr	r25
     e7e:	87 95       	ror	r24
     e80:	92 95       	swap	r25
     e82:	82 95       	swap	r24
     e84:	8f 70       	andi	r24, 0x0F	; 15
     e86:	89 27       	eor	r24, r25
     e88:	9f 70       	andi	r25, 0x0F	; 15
     e8a:	89 27       	eor	r24, r25
     e8c:	90 93 81 03 	sts	0x0381, r25
     e90:	80 93 80 03 	sts	0x0380, r24
	
#endif	
//#endif

}	
     e94:	df 91       	pop	r29
     e96:	cf 91       	pop	r28
     e98:	08 95       	ret

00000e9a <ADC_V_bat_to_LCD>:

				//sprintf(str2, "Вкл:%04lu:%02lu:%02lu", LOAD_NUMBER_DAY, LOAD_NUMBER_HOUR, LOAD_NUMBER_MINUT);//укажем количество пусков АЦП
				//LcdGotoXYFont(0,3);
				//LcdStr(FONT_1X, &str2);
				//sprintf(str2, "L:%3u V:%4uмВ", ((adc_light_res_i/ADC_CYCLES_NUMBER)),(ADC_BAT_RESULT_mV));//укажем текущее среднее значение АЦП
				sprintf(str2, "L:%4uV:%4uмВ", ADC_LIGHT_RESULT_mV, ADC_BAT_RESULT_mV);//укажем текущее среднее значение АЦП
     e9a:	80 91 7d 03 	lds	r24, 0x037D
     e9e:	8f 93       	push	r24
     ea0:	80 91 7c 03 	lds	r24, 0x037C
     ea4:	8f 93       	push	r24
     ea6:	80 91 7b 03 	lds	r24, 0x037B
     eaa:	8f 93       	push	r24
     eac:	80 91 7a 03 	lds	r24, 0x037A
     eb0:	8f 93       	push	r24
     eb2:	80 91 81 03 	lds	r24, 0x0381
     eb6:	8f 93       	push	r24
     eb8:	80 91 80 03 	lds	r24, 0x0380
     ebc:	8f 93       	push	r24
     ebe:	81 e0       	ldi	r24, 0x01	; 1
     ec0:	91 e0       	ldi	r25, 0x01	; 1
     ec2:	9f 93       	push	r25
     ec4:	8f 93       	push	r24
     ec6:	86 e8       	ldi	r24, 0x86	; 134
     ec8:	93 e0       	ldi	r25, 0x03	; 3
     eca:	9f 93       	push	r25
     ecc:	8f 93       	push	r24
     ece:	0e 94 3e 0d 	call	0x1a7c	; 0x1a7c <sprintf>
				LcdGotoXYFont(0,5);			
     ed2:	65 e0       	ldi	r22, 0x05	; 5
     ed4:	80 e0       	ldi	r24, 0x00	; 0
     ed6:	0e 94 0f 03 	call	0x61e	; 0x61e <LcdGotoXYFont>
				LcdStr(FONT_1X, &str2);
     eda:	66 e8       	ldi	r22, 0x86	; 134
     edc:	73 e0       	ldi	r23, 0x03	; 3
     ede:	81 e0       	ldi	r24, 0x01	; 1
     ee0:	0e 94 14 04 	call	0x828	; 0x828 <LcdStr>
     ee4:	8d b7       	in	r24, 0x3d	; 61
     ee6:	9e b7       	in	r25, 0x3e	; 62
     ee8:	0a 96       	adiw	r24, 0x0a	; 10
     eea:	0f b6       	in	r0, 0x3f	; 63
     eec:	f8 94       	cli
     eee:	9e bf       	out	0x3e, r25	; 62
     ef0:	0f be       	out	0x3f, r0	; 63
     ef2:	8d bf       	out	0x3d, r24	; 61
     ef4:	08 95       	ret

00000ef6 <main>:
	#if MODE_OF_OPERATION==2
	//перенеси потом на место!!
	uint8_t lcd_temp_correct_number_on=0;
	uint8_t lcd_temp_correct_number_off=0;
	// Пины на выход
	KEY_V_BAT_DDR=(1<<KEY_V_BAT_PIN);
     ef6:	80 e1       	ldi	r24, 0x10	; 16
     ef8:	8a b9       	out	0x0a, r24	; 10
	KEY_V_BAT_OFF();
     efa:	5c 9a       	sbi	0x0b, 4	; 11
	//CLKPR = (1 << CLKPCE); // Enable change of CLKPS bits
	//CLKPR = (1 << CLKPS1); // Set prescaler to 4, and system clock to 2 MHz
	MCUCR = (1 << BODS); 
     efc:	80 e4       	ldi	r24, 0x40	; 64
     efe:	85 bf       	out	0x35, r24	; 53
		#endif
	#endif
	
	
	#if (ADC_IS_USED==1)
	ADC_init();
     f00:	0e 94 a6 06 	call	0xd4c	; 0xd4c <ADC_init>
	 	 LCD_Goto(0,0);
	 	 LCD_SendStr("Ok");
		#endif 
		#if LCD_TYPE==1
		unsigned char lcd_power=1;
			LcdInit();
     f04:	0e 94 e9 02 	call	0x5d2	; 0x5d2 <LcdInit>
			LcdClear();
     f08:	0e 94 69 02 	call	0x4d2	; 0x4d2 <LcdClear>
			LcdGotoXYFont(0,2);
     f0c:	62 e0       	ldi	r22, 0x02	; 2
     f0e:	80 e0       	ldi	r24, 0x00	; 0
     f10:	0e 94 0f 03 	call	0x61e	; 0x61e <LcdGotoXYFont>
			LcdFStr(FONT_2X,(unsigned char*)PSTR("Прывет!"));
     f14:	6e e3       	ldi	r22, 0x3E	; 62
     f16:	74 e0       	ldi	r23, 0x04	; 4
     f18:	82 e0       	ldi	r24, 0x02	; 2
     f1a:	0e 94 33 04 	call	0x866	; 0x866 <LcdFStr>
			LcdUpdate();
     f1e:	0e 94 81 02 	call	0x502	; 0x502 <LcdUpdate>
//		unsigned int tmp = 0;
//		unsigned char temperature;
     //инициализируем 1-Wire
	 //printf("инициализируем 1-Wire");
	 //send_Uart(13);
	 OWI_Init(BUS);
     f22:	88 e0       	ldi	r24, 0x08	; 8
     f24:	0e 94 f2 09 	call	0x13e4	; 0x13e4 <OWI_Init>
     Init_Temperatura();
     f28:	0e 94 95 0a 	call	0x152a	; 0x152a <Init_Temperatura>
	 	 LCD_Clear();
	 	 LCD_Goto(0,0);
	 	 LCD_SendStr("Ok");
		#endif 
		#if LCD_TYPE==1
		unsigned char lcd_power=1;
     f2c:	11 e0       	ldi	r17, 0x01	; 1
	KEY_V_BAT_DDR=(1<<KEY_V_BAT_PIN);
	KEY_V_BAT_OFF();
	//CLKPR = (1 << CLKPCE); // Enable change of CLKPS bits
	//CLKPR = (1 << CLKPS1); // Set prescaler to 4, and system clock to 2 MHz
	MCUCR = (1 << BODS); 
	uint16_t _1wire_stop_i=0;
     f2e:	c0 e0       	ldi	r28, 0x00	; 0
     f30:	d0 e0       	ldi	r29, 0x00	; 0
	
	//Уличный датчик №1
	#if MODE_OF_OPERATION==2
	//перенеси потом на место!!
	uint8_t lcd_temp_correct_number_on=0;
	uint8_t lcd_temp_correct_number_off=0;
     f32:	b1 2c       	mov	r11, r1
	#endif
	
	//Уличный датчик №1
	#if MODE_OF_OPERATION==2
	//перенеси потом на место!!
	uint8_t lcd_temp_correct_number_on=0;
     f34:	c1 2c       	mov	r12, r1
				}
				else //если напряжение не позволяет получить температуру с датчика
				{
					_1wire_stop_i++;//увеличим счетчик неудачных попыток измерить температуру
					#if LCD_TYPE==1
						sprintf(str2, "T fail: %6u", _1wire_stop_i);//укажем количество неудачных попыток измерить температуру
     f36:	0f 2e       	mov	r0, r31
     f38:	fe e0       	ldi	r31, 0x0E	; 14
     f3a:	ef 2e       	mov	r14, r31
     f3c:	f1 e0       	ldi	r31, 0x01	; 1
     f3e:	ff 2e       	mov	r15, r31
     f40:	f0 2d       	mov	r31, r0
     f42:	0f 2e       	mov	r0, r31
     f44:	f6 e8       	ldi	r31, 0x86	; 134
     f46:	6f 2e       	mov	r6, r31
     f48:	f3 e0       	ldi	r31, 0x03	; 3
     f4a:	7f 2e       	mov	r7, r31
     f4c:	f0 2d       	mov	r31, r0
		{
			start_number=0; // обнулим сетчик запусков для температуры
			#if LCD_IS_USED==1
				if (ADC_BAT_RESULT_mV>V_1WIRE_MIN)//если напряжение позволит получить температуру с датчика 
				{
					_1wire_stop_i=0;//обнулим счетчик неудачных попыток измерить температуру
     f4e:	91 2c       	mov	r9, r1
     f50:	a1 2c       	mov	r10, r1
		//Get_all_Temperatura();
		//Set_Temp_to_LCD();
		//ADC_result();
		//_delay_ms(2000);
		//KEY_ON();
		if (load_number_i<1000000000)
     f52:	80 91 74 03 	lds	r24, 0x0374
     f56:	90 91 75 03 	lds	r25, 0x0375
     f5a:	a0 91 76 03 	lds	r26, 0x0376
     f5e:	b0 91 77 03 	lds	r27, 0x0377
     f62:	81 15       	cp	r24, r1
     f64:	9a 4c       	sbci	r25, 0xCA	; 202
     f66:	aa 49       	sbci	r26, 0x9A	; 154
     f68:	bb 43       	sbci	r27, 0x3B	; 59
     f6a:	a0 f4       	brcc	.+40     	; 0xf94 <main+0x9e>
		{
			load_number_i=load_number_i+1;//увеличим счетчик запусков
     f6c:	80 91 74 03 	lds	r24, 0x0374
     f70:	90 91 75 03 	lds	r25, 0x0375
     f74:	a0 91 76 03 	lds	r26, 0x0376
     f78:	b0 91 77 03 	lds	r27, 0x0377
     f7c:	01 96       	adiw	r24, 0x01	; 1
     f7e:	a1 1d       	adc	r26, r1
     f80:	b1 1d       	adc	r27, r1
     f82:	80 93 74 03 	sts	0x0374, r24
     f86:	90 93 75 03 	sts	0x0375, r25
     f8a:	a0 93 76 03 	sts	0x0376, r26
     f8e:	b0 93 77 03 	sts	0x0377, r27
     f92:	08 c0       	rjmp	.+16     	; 0xfa4 <main+0xae>
		}
		else
		{
			load_number_i=0;
     f94:	10 92 74 03 	sts	0x0374, r1
     f98:	10 92 75 03 	sts	0x0375, r1
     f9c:	10 92 76 03 	sts	0x0376, r1
     fa0:	10 92 77 03 	sts	0x0377, r1
		}
		//adc_i++;
		//_delay_ms(10);
		
		
		if (start_number>=_1WIRE_START_CYCLES_NUMBER)// редко проверяем температуру, раз в 10 минут
     fa4:	80 91 7e 03 	lds	r24, 0x037E
     fa8:	8b 34       	cpi	r24, 0x4B	; 75
     faa:	08 f4       	brcc	.+2      	; 0xfae <main+0xb8>
     fac:	41 c0       	rjmp	.+130    	; 0x1030 <main+0x13a>
		{
			start_number=0; // обнулим сетчик запусков для температуры
     fae:	10 92 7e 03 	sts	0x037E, r1
			#if LCD_IS_USED==1
				if (ADC_BAT_RESULT_mV>V_1WIRE_MIN)//если напряжение позволит получить температуру с датчика 
     fb2:	80 91 7a 03 	lds	r24, 0x037A
     fb6:	90 91 7b 03 	lds	r25, 0x037B
     fba:	a0 91 7c 03 	lds	r26, 0x037C
     fbe:	b0 91 7d 03 	lds	r27, 0x037D
     fc2:	89 3b       	cpi	r24, 0xB9	; 185
     fc4:	9b 40       	sbci	r25, 0x0B	; 11
     fc6:	a1 05       	cpc	r26, r1
     fc8:	b1 05       	cpc	r27, r1
     fca:	48 f0       	brcs	.+18     	; 0xfde <main+0xe8>
				{
					_1wire_stop_i=0;//обнулим счетчик неудачных попыток измерить температуру
					#if LCD_TYPE==1
						LcdClear();//очищаем буфер экрана в памяти МК
     fcc:	0e 94 69 02 	call	0x4d2	; 0x4d2 <LcdClear>
					#endif
					#if LCD_TYPE==0
						LCD_Clear();//очищаем экран
					#endif
					#if ADC_IS_USED==1
						ADC_V_batt();//запускаем АЦП
     fd0:	0e 94 ad 06 	call	0xd5a	; 0xd5a <ADC_V_batt>
					#endif
					#if _1WIRE_IS_USED==1
						Set_Temp_to_LCD();//получим температуру с датчика и сформируем данные для дисплея
     fd4:	0e 94 af 0b 	call	0x175e	; 0x175e <Set_Temp_to_LCD>
		{
			start_number=0; // обнулим сетчик запусков для температуры
			#if LCD_IS_USED==1
				if (ADC_BAT_RESULT_mV>V_1WIRE_MIN)//если напряжение позволит получить температуру с датчика 
				{
					_1wire_stop_i=0;//обнулим счетчик неудачных попыток измерить температуру
     fd8:	c9 2d       	mov	r28, r9
     fda:	da 2d       	mov	r29, r10
     fdc:	17 c0       	rjmp	.+46     	; 0x100c <main+0x116>
						Set_Temp_to_LCD();//получим температуру с датчика и сформируем данные для дисплея
					#endif
				}
				else //если напряжение не позволяет получить температуру с датчика
				{
					_1wire_stop_i++;//увеличим счетчик неудачных попыток измерить температуру
     fde:	21 96       	adiw	r28, 0x01	; 1
					#if LCD_TYPE==1
						sprintf(str2, "T fail: %6u", _1wire_stop_i);//укажем количество неудачных попыток измерить температуру
     fe0:	df 93       	push	r29
     fe2:	cf 93       	push	r28
     fe4:	ff 92       	push	r15
     fe6:	ef 92       	push	r14
     fe8:	7f 92       	push	r7
     fea:	6f 92       	push	r6
     fec:	0e 94 3e 0d 	call	0x1a7c	; 0x1a7c <sprintf>
						LcdGotoXYFont(0,2);
     ff0:	62 e0       	ldi	r22, 0x02	; 2
     ff2:	80 e0       	ldi	r24, 0x00	; 0
     ff4:	0e 94 0f 03 	call	0x61e	; 0x61e <LcdGotoXYFont>
						LcdStr(FONT_1X, &str2);
     ff8:	b3 01       	movw	r22, r6
     ffa:	81 e0       	ldi	r24, 0x01	; 1
     ffc:	0e 94 14 04 	call	0x828	; 0x828 <LcdStr>
    1000:	0f 90       	pop	r0
    1002:	0f 90       	pop	r0
    1004:	0f 90       	pop	r0
    1006:	0f 90       	pop	r0
    1008:	0f 90       	pop	r0
    100a:	0f 90       	pop	r0
					#endif
				}
				#if LCD_TYPE==1
					if (ADC_BAT_RESULT_mV>V_LCD_5110_MIN)//если напряжение позволит отобразить данные на дисплее, отправим их на него
    100c:	80 91 7a 03 	lds	r24, 0x037A
    1010:	90 91 7b 03 	lds	r25, 0x037B
    1014:	a0 91 7c 03 	lds	r26, 0x037C
    1018:	b0 91 7d 03 	lds	r27, 0x037D
    101c:	85 33       	cpi	r24, 0x35	; 53
    101e:	98 40       	sbci	r25, 0x08	; 8
    1020:	a1 05       	cpc	r26, r1
    1022:	b1 05       	cpc	r27, r1
    1024:	28 f1       	brcs	.+74     	; 0x1070 <main+0x17a>
					{
						/*выводим на экран напряжение*/
						ADC_V_bat_to_LCD();
    1026:	0e 94 4d 07 	call	0xe9a	; 0xe9a <ADC_V_bat_to_LCD>
						LcdUpdate();
    102a:	0e 94 81 02 	call	0x502	; 0x502 <LcdUpdate>
    102e:	20 c0       	rjmp	.+64     	; 0x1070 <main+0x17a>
					#endif
			#endif
		}
		else // часто пытаемся проверить напряжение
		{
			start_number++;
    1030:	8f 5f       	subi	r24, 0xFF	; 255
    1032:	80 93 7e 03 	sts	0x037E, r24
			//start_number=0;
			if (adc_start_number<ADC_START_CYCLES_NUMBER)// пока вообще ничего не делаем, только счетчик увеличим и затем уснем
    1036:	80 91 7f 03 	lds	r24, 0x037F
    103a:	88 30       	cpi	r24, 0x08	; 8
    103c:	20 f4       	brcc	.+8      	; 0x1046 <main+0x150>
			{
				adc_start_number++;
    103e:	8f 5f       	subi	r24, 0xFF	; 255
    1040:	80 93 7f 03 	sts	0x037F, r24
    1044:	15 c0       	rjmp	.+42     	; 0x1070 <main+0x17a>
			} 
			else//вот теперь проверяем напряжение 
			{
				adc_start_number=0;
    1046:	10 92 7f 03 	sts	0x037F, r1
				#if LCD_IS_USED==1
					
						#if ADC_IS_USED==1
						ADC_V_batt();//запускаем АЦП 
    104a:	0e 94 ad 06 	call	0xd5a	; 0xd5a <ADC_V_batt>
						/*выводим на экран напряжение*/
						ADC_V_bat_to_LCD();
    104e:	0e 94 4d 07 	call	0xe9a	; 0xe9a <ADC_V_bat_to_LCD>
						#endif
						#if LCD_TYPE==1
						if (ADC_BAT_RESULT_mV>V_LCD_5110_MIN)
    1052:	80 91 7a 03 	lds	r24, 0x037A
    1056:	90 91 7b 03 	lds	r25, 0x037B
    105a:	a0 91 7c 03 	lds	r26, 0x037C
    105e:	b0 91 7d 03 	lds	r27, 0x037D
    1062:	85 33       	cpi	r24, 0x35	; 53
    1064:	98 40       	sbci	r25, 0x08	; 8
    1066:	a1 05       	cpc	r26, r1
    1068:	b1 05       	cpc	r27, r1
    106a:	10 f0       	brcs	.+4      	; 0x1070 <main+0x17a>
							{
								
								LcdUpdate();//если напряжение позволит отобразить данные на дисплее, отправим их на него
    106c:	0e 94 81 02 	call	0x502	; 0x502 <LcdUpdate>


		// поочереди включаем и выключем экран для экономии энергии каждые 8 с,
		// если напряжение ниже 5 вольт
		
		if ((lcd_power==1) && (ADC_BAT_RESULT_mV<V_BAT_ECONOM))//если экран включен а напряжение на емкости требует экономии
    1070:	11 30       	cpi	r17, 0x01	; 1
    1072:	19 f5       	brne	.+70     	; 0x10ba <main+0x1c4>
    1074:	80 91 7a 03 	lds	r24, 0x037A
    1078:	90 91 7b 03 	lds	r25, 0x037B
    107c:	a0 91 7c 03 	lds	r26, 0x037C
    1080:	b0 91 7d 03 	lds	r27, 0x037D
    1084:	88 38       	cpi	r24, 0x88	; 136
    1086:	93 41       	sbci	r25, 0x13	; 19
    1088:	a1 05       	cpc	r26, r1
    108a:	b1 05       	cpc	r27, r1
    108c:	b0 f4       	brcc	.+44     	; 0x10ba <main+0x1c4>
		{
			if ((Get_Temp_int())<=108)// если очень холодно -20
    108e:	0e 94 74 0a 	call	0x14e8	; 0x14e8 <Get_Temp_int>
    1092:	8d 36       	cpi	r24, 0x6D	; 109
    1094:	91 05       	cpc	r25, r1
    1096:	5c f4       	brge	.+22     	; 0x10ae <main+0x1b8>
			{
				if (lcd_temp_correct_number_off<LCD_TEMPERATURE_CORRECTION_NUMBER)// если выключать экран еще рано
    1098:	81 e0       	ldi	r24, 0x01	; 1
    109a:	8b 15       	cp	r24, r11
    109c:	10 f0       	brcs	.+4      	; 0x10a2 <main+0x1ac>
				{
					lcd_temp_correct_number_off++;//подождем еще
    109e:	b3 94       	inc	r11
    10a0:	51 c0       	rjmp	.+162    	; 0x1144 <main+0x24e>
				}
				else// если выключать экран уже пора
				{
					lcd_temp_correct_number_off=0;//сбросим счетчик
					Lcd_off();// выключем экран для экономии энергии
    10a2:	0e 94 5f 02 	call	0x4be	; 0x4be <Lcd_off>
					KEY_V_BAT_OFF();// выключем подсветку для экономии энергии
    10a6:	5c 9a       	sbi	0x0b, 4	; 11
					lcd_power=0;//экран был погашен
    10a8:	10 e0       	ldi	r17, 0x00	; 0
				{
					lcd_temp_correct_number_off++;//подождем еще
				}
				else// если выключать экран уже пора
				{
					lcd_temp_correct_number_off=0;//сбросим счетчик
    10aa:	b1 2c       	mov	r11, r1
    10ac:	4b c0       	rjmp	.+150    	; 0x1144 <main+0x24e>
				}
			}
			else //если не очень холодно
			{
				lcd_temp_correct_number_off=0;//сбросим счетчик
				Lcd_off();// выключем экран для экономии энергии
    10ae:	0e 94 5f 02 	call	0x4be	; 0x4be <Lcd_off>
				KEY_V_BAT_OFF();// выключем подсветку для экономии энергии
    10b2:	5c 9a       	sbi	0x0b, 4	; 11
				lcd_power=0;//экран был погашен
    10b4:	10 e0       	ldi	r17, 0x00	; 0
					lcd_power=0;//экран был погашен
				}
			}
			else //если не очень холодно
			{
				lcd_temp_correct_number_off=0;//сбросим счетчик
    10b6:	b1 2c       	mov	r11, r1
    10b8:	45 c0       	rjmp	.+138    	; 0x1144 <main+0x24e>
			
		}
		else// если экономить ненужно
		{
			
			if (Get_Temp_int()<=108)// если очень холодно -20
    10ba:	0e 94 74 0a 	call	0x14e8	; 0x14e8 <Get_Temp_int>
    10be:	8d 36       	cpi	r24, 0x6D	; 109
    10c0:	91 05       	cpc	r25, r1
    10c2:	0c f5       	brge	.+66     	; 0x1106 <main+0x210>
			{
				if (lcd_temp_correct_number_on<LCD_TEMPERATURE_CORRECTION_NUMBER)// если включать экран еще рано
    10c4:	21 e0       	ldi	r18, 0x01	; 1
    10c6:	2c 15       	cp	r18, r12
    10c8:	10 f0       	brcs	.+4      	; 0x10ce <main+0x1d8>
				{
					lcd_temp_correct_number_on++;//подождем еще
    10ca:	c3 94       	inc	r12
    10cc:	3b c0       	rjmp	.+118    	; 0x1144 <main+0x24e>
				}
				else// если включать экран уже пора
				{
					lcd_temp_correct_number_on=0;//сбросим счетчик
					
					if (ADC_BAT_RESULT_mV>V_LCD_5110_MIN) // включаем экран если напряжение позволит чтонить на нем увидеть
    10ce:	80 91 7a 03 	lds	r24, 0x037A
    10d2:	90 91 7b 03 	lds	r25, 0x037B
    10d6:	a0 91 7c 03 	lds	r26, 0x037C
    10da:	b0 91 7d 03 	lds	r27, 0x037D
    10de:	85 33       	cpi	r24, 0x35	; 53
    10e0:	98 40       	sbci	r25, 0x08	; 8
    10e2:	a1 05       	cpc	r26, r1
    10e4:	b1 05       	cpc	r27, r1
    10e6:	58 f1       	brcs	.+86     	; 0x113e <main+0x248>
					{
						if (ADC_LIGHT_RESULT>=200)// если стало темно
    10e8:	80 91 84 03 	lds	r24, 0x0384
    10ec:	90 91 85 03 	lds	r25, 0x0385
    10f0:	81 15       	cp	r24, r1
    10f2:	99 41       	sbci	r25, 0x19	; 25
    10f4:	10 f0       	brcs	.+4      	; 0x10fa <main+0x204>
						{
							KEY_V_BAT_ON();// то включаем подсветку
    10f6:	5c 98       	cbi	0x0b, 4	; 11
    10f8:	01 c0       	rjmp	.+2      	; 0x10fc <main+0x206>
						}
						else //светло у нас
						{
							KEY_V_BAT_OFF();// выключем подсветку для экономии энергии
    10fa:	5c 9a       	sbi	0x0b, 4	; 11
						}
						Lcd_on();// включаем экран
    10fc:	0e 94 64 02 	call	0x4c8	; 0x4c8 <Lcd_on>
						lcd_power=1;//экран был включен
    1100:	11 e0       	ldi	r17, 0x01	; 1
				{
					lcd_temp_correct_number_on++;//подождем еще
				}
				else// если включать экран уже пора
				{
					lcd_temp_correct_number_on=0;//сбросим счетчик
    1102:	c1 2c       	mov	r12, r1
    1104:	1f c0       	rjmp	.+62     	; 0x1144 <main+0x24e>
		
			else //если не очень холодно
				{
					lcd_temp_correct_number_on=0;//сбросим счетчик
					
					if (ADC_BAT_RESULT_mV>V_LCD_5110_MIN) // включаем экран если напряжение позволит чтонить на нем увидеть
    1106:	80 91 7a 03 	lds	r24, 0x037A
    110a:	90 91 7b 03 	lds	r25, 0x037B
    110e:	a0 91 7c 03 	lds	r26, 0x037C
    1112:	b0 91 7d 03 	lds	r27, 0x037D
    1116:	85 33       	cpi	r24, 0x35	; 53
    1118:	98 40       	sbci	r25, 0x08	; 8
    111a:	a1 05       	cpc	r26, r1
    111c:	b1 05       	cpc	r27, r1
    111e:	88 f0       	brcs	.+34     	; 0x1142 <main+0x24c>
					{
						
						if (ADC_LIGHT_RESULT>=200)// если стало темно
    1120:	80 91 84 03 	lds	r24, 0x0384
    1124:	90 91 85 03 	lds	r25, 0x0385
    1128:	81 15       	cp	r24, r1
    112a:	99 41       	sbci	r25, 0x19	; 25
    112c:	10 f0       	brcs	.+4      	; 0x1132 <main+0x23c>
						{
							KEY_V_BAT_ON();// то включаем подсветку
    112e:	5c 98       	cbi	0x0b, 4	; 11
    1130:	01 c0       	rjmp	.+2      	; 0x1134 <main+0x23e>
						}
						else
						{
							KEY_V_BAT_OFF();// выключем подсветку для экономии энергии
    1132:	5c 9a       	sbi	0x0b, 4	; 11
						}
						Lcd_on();// включаем экран
    1134:	0e 94 64 02 	call	0x4c8	; 0x4c8 <Lcd_on>
						lcd_power=1;//экран был включен
    1138:	11 e0       	ldi	r17, 0x01	; 1
				}
			}
		
			else //если не очень холодно
				{
					lcd_temp_correct_number_on=0;//сбросим счетчик
    113a:	c1 2c       	mov	r12, r1
    113c:	03 c0       	rjmp	.+6      	; 0x1144 <main+0x24e>
				{
					lcd_temp_correct_number_on++;//подождем еще
				}
				else// если включать экран уже пора
				{
					lcd_temp_correct_number_on=0;//сбросим счетчик
    113e:	c1 2c       	mov	r12, r1
    1140:	01 c0       	rjmp	.+2      	; 0x1144 <main+0x24e>
				}
			}
		
			else //если не очень холодно
				{
					lcd_temp_correct_number_on=0;//сбросим счетчик
    1142:	c1 2c       	mov	r12, r1
		#endif
		#endif
		
		#if SLEEP_MODE_USED==1
		
		sleep_enable(); // разрешаем сон
    1144:	83 b7       	in	r24, 0x33	; 51
    1146:	81 60       	ori	r24, 0x01	; 1
    1148:	83 bf       	out	0x33, r24	; 51
		sleep_cpu(); // спать!
    114a:	88 95       	sleep
			#if SLEEP_MODE_USED==0
				_delay_ms(SLEEP_MODE_DELAY);
			#endif
		#endif

    }
    114c:	02 cf       	rjmp	.-508    	; 0xf52 <main+0x5c>

0000114e <OWI_ComputeCRC8>:
    114e:	98 e0       	ldi	r25, 0x08	; 8
    1150:	38 e1       	ldi	r19, 0x18	; 24
    1152:	26 2f       	mov	r18, r22
    1154:	28 27       	eor	r18, r24
    1156:	20 fd       	sbrc	r18, 0
    1158:	02 c0       	rjmp	.+4      	; 0x115e <OWI_ComputeCRC8+0x10>
    115a:	66 95       	lsr	r22
    115c:	03 c0       	rjmp	.+6      	; 0x1164 <OWI_ComputeCRC8+0x16>
    115e:	63 27       	eor	r22, r19
    1160:	66 95       	lsr	r22
    1162:	60 68       	ori	r22, 0x80	; 128
    1164:	86 95       	lsr	r24
    1166:	91 50       	subi	r25, 0x01	; 1
    1168:	a1 f7       	brne	.-24     	; 0x1152 <OWI_ComputeCRC8+0x4>
    116a:	86 2f       	mov	r24, r22
    116c:	08 95       	ret

0000116e <OWI_CheckRomCRC>:
    116e:	ef 92       	push	r14
    1170:	ff 92       	push	r15
    1172:	0f 93       	push	r16
    1174:	1f 93       	push	r17
    1176:	cf 93       	push	r28
    1178:	df 93       	push	r29
    117a:	7c 01       	movw	r14, r24
    117c:	8c 01       	movw	r16, r24
    117e:	09 5f       	subi	r16, 0xF9	; 249
    1180:	1f 4f       	sbci	r17, 0xFF	; 255
    1182:	ec 01       	movw	r28, r24
    1184:	60 e0       	ldi	r22, 0x00	; 0
    1186:	89 91       	ld	r24, Y+
    1188:	0e 94 a7 08 	call	0x114e	; 0x114e <OWI_ComputeCRC8>
    118c:	68 2f       	mov	r22, r24
    118e:	c0 17       	cp	r28, r16
    1190:	d1 07       	cpc	r29, r17
    1192:	c9 f7       	brne	.-14     	; 0x1186 <OWI_CheckRomCRC+0x18>
    1194:	81 e0       	ldi	r24, 0x01	; 1
    1196:	f7 01       	movw	r30, r14
    1198:	97 81       	ldd	r25, Z+7	; 0x07
    119a:	69 13       	cpse	r22, r25
    119c:	01 c0       	rjmp	.+2      	; 0x11a0 <OWI_CheckRomCRC+0x32>
    119e:	80 e0       	ldi	r24, 0x00	; 0
    11a0:	df 91       	pop	r29
    11a2:	cf 91       	pop	r28
    11a4:	1f 91       	pop	r17
    11a6:	0f 91       	pop	r16
    11a8:	ff 90       	pop	r15
    11aa:	ef 90       	pop	r14
    11ac:	08 95       	ret

000011ae <OWI_SendByte>:
    11ae:	1f 93       	push	r17
    11b0:	cf 93       	push	r28
    11b2:	df 93       	push	r29
    11b4:	d8 2f       	mov	r29, r24
    11b6:	16 2f       	mov	r17, r22
    11b8:	c8 e0       	ldi	r28, 0x08	; 8
    11ba:	d0 ff       	sbrs	r29, 0
    11bc:	04 c0       	rjmp	.+8      	; 0x11c6 <OWI_SendByte+0x18>
    11be:	81 2f       	mov	r24, r17
    11c0:	0e 94 00 0a 	call	0x1400	; 0x1400 <OWI_WriteBit1>
    11c4:	03 c0       	rjmp	.+6      	; 0x11cc <OWI_SendByte+0x1e>
    11c6:	81 2f       	mov	r24, r17
    11c8:	0e 94 19 0a 	call	0x1432	; 0x1432 <OWI_WriteBit0>
    11cc:	d6 95       	lsr	r29
    11ce:	c1 50       	subi	r28, 0x01	; 1
    11d0:	a1 f7       	brne	.-24     	; 0x11ba <OWI_SendByte+0xc>
    11d2:	df 91       	pop	r29
    11d4:	cf 91       	pop	r28
    11d6:	1f 91       	pop	r17
    11d8:	08 95       	ret

000011da <OWI_ReceiveByte>:
    11da:	1f 93       	push	r17
    11dc:	cf 93       	push	r28
    11de:	df 93       	push	r29
    11e0:	18 2f       	mov	r17, r24
    11e2:	d8 e0       	ldi	r29, 0x08	; 8
    11e4:	c0 e0       	ldi	r28, 0x00	; 0
    11e6:	c6 95       	lsr	r28
    11e8:	81 2f       	mov	r24, r17
    11ea:	0e 94 31 0a 	call	0x1462	; 0x1462 <OWI_ReadBit>
    11ee:	81 11       	cpse	r24, r1
    11f0:	c0 68       	ori	r28, 0x80	; 128
    11f2:	d1 50       	subi	r29, 0x01	; 1
    11f4:	c1 f7       	brne	.-16     	; 0x11e6 <OWI_ReceiveByte+0xc>
    11f6:	8c 2f       	mov	r24, r28
    11f8:	df 91       	pop	r29
    11fa:	cf 91       	pop	r28
    11fc:	1f 91       	pop	r17
    11fe:	08 95       	ret

00001200 <OWI_SkipRom>:
    1200:	68 2f       	mov	r22, r24
    1202:	8c ec       	ldi	r24, 0xCC	; 204
    1204:	0e 94 d7 08 	call	0x11ae	; 0x11ae <OWI_SendByte>
    1208:	08 95       	ret

0000120a <OWI_MatchRom>:
    120a:	ff 92       	push	r15
    120c:	0f 93       	push	r16
    120e:	1f 93       	push	r17
    1210:	cf 93       	push	r28
    1212:	df 93       	push	r29
    1214:	8c 01       	movw	r16, r24
    1216:	f6 2e       	mov	r15, r22
    1218:	85 e5       	ldi	r24, 0x55	; 85
    121a:	0e 94 d7 08 	call	0x11ae	; 0x11ae <OWI_SendByte>
    121e:	e8 01       	movw	r28, r16
    1220:	08 5f       	subi	r16, 0xF8	; 248
    1222:	1f 4f       	sbci	r17, 0xFF	; 255
    1224:	6f 2d       	mov	r22, r15
    1226:	89 91       	ld	r24, Y+
    1228:	0e 94 d7 08 	call	0x11ae	; 0x11ae <OWI_SendByte>
    122c:	c0 17       	cp	r28, r16
    122e:	d1 07       	cpc	r29, r17
    1230:	c9 f7       	brne	.-14     	; 0x1224 <OWI_MatchRom+0x1a>
    1232:	df 91       	pop	r29
    1234:	cf 91       	pop	r28
    1236:	1f 91       	pop	r17
    1238:	0f 91       	pop	r16
    123a:	ff 90       	pop	r15
    123c:	08 95       	ret

0000123e <OWI_SearchRom>:
    123e:	bf 92       	push	r11
    1240:	cf 92       	push	r12
    1242:	df 92       	push	r13
    1244:	ef 92       	push	r14
    1246:	ff 92       	push	r15
    1248:	0f 93       	push	r16
    124a:	1f 93       	push	r17
    124c:	cf 93       	push	r28
    124e:	df 93       	push	r29
    1250:	ec 01       	movw	r28, r24
    1252:	d6 2e       	mov	r13, r22
    1254:	f4 2e       	mov	r15, r20
    1256:	64 2f       	mov	r22, r20
    1258:	80 ef       	ldi	r24, 0xF0	; 240
    125a:	0e 94 d7 08 	call	0x11ae	; 0x11ae <OWI_SendByte>
    125e:	11 e0       	ldi	r17, 0x01	; 1
    1260:	b1 2c       	mov	r11, r1
    1262:	01 e0       	ldi	r16, 0x01	; 1
    1264:	cc 24       	eor	r12, r12
    1266:	c3 94       	inc	r12
    1268:	8f 2d       	mov	r24, r15
    126a:	0e 94 31 0a 	call	0x1462	; 0x1462 <OWI_ReadBit>
    126e:	e8 2e       	mov	r14, r24
    1270:	8f 2d       	mov	r24, r15
    1272:	0e 94 31 0a 	call	0x1462	; 0x1462 <OWI_ReadBit>
    1276:	ee 20       	and	r14, r14
    1278:	b1 f1       	breq	.+108    	; 0x12e6 <OWI_SearchRom+0xa8>
    127a:	81 11       	cpse	r24, r1
    127c:	30 c0       	rjmp	.+96     	; 0x12de <OWI_SearchRom+0xa0>
    127e:	98 81       	ld	r25, Y
    1280:	91 2b       	or	r25, r17
    1282:	98 83       	st	Y, r25
    1284:	19 c0       	rjmp	.+50     	; 0x12b8 <OWI_SearchRom+0x7a>
    1286:	28 81       	ld	r18, Y
    1288:	91 2f       	mov	r25, r17
    128a:	90 95       	com	r25
    128c:	92 23       	and	r25, r18
    128e:	98 83       	st	Y, r25
    1290:	13 c0       	rjmp	.+38     	; 0x12b8 <OWI_SearchRom+0x7a>
    1292:	0d 11       	cpse	r16, r13
    1294:	04 c0       	rjmp	.+8      	; 0x129e <OWI_SearchRom+0x60>
    1296:	88 81       	ld	r24, Y
    1298:	81 2b       	or	r24, r17
    129a:	88 83       	st	Y, r24
    129c:	0d c0       	rjmp	.+26     	; 0x12b8 <OWI_SearchRom+0x7a>
    129e:	d0 16       	cp	r13, r16
    12a0:	38 f4       	brcc	.+14     	; 0x12b0 <OWI_SearchRom+0x72>
    12a2:	98 81       	ld	r25, Y
    12a4:	81 2f       	mov	r24, r17
    12a6:	80 95       	com	r24
    12a8:	89 23       	and	r24, r25
    12aa:	88 83       	st	Y, r24
    12ac:	b0 2e       	mov	r11, r16
    12ae:	04 c0       	rjmp	.+8      	; 0x12b8 <OWI_SearchRom+0x7a>
    12b0:	98 81       	ld	r25, Y
    12b2:	91 23       	and	r25, r17
    12b4:	41 f0       	breq	.+16     	; 0x12c6 <OWI_SearchRom+0x88>
    12b6:	03 c0       	rjmp	.+6      	; 0x12be <OWI_SearchRom+0x80>
    12b8:	98 81       	ld	r25, Y
    12ba:	91 23       	and	r25, r17
    12bc:	29 f0       	breq	.+10     	; 0x12c8 <OWI_SearchRom+0x8a>
    12be:	8f 2d       	mov	r24, r15
    12c0:	0e 94 00 0a 	call	0x1400	; 0x1400 <OWI_WriteBit1>
    12c4:	04 c0       	rjmp	.+8      	; 0x12ce <OWI_SearchRom+0x90>
    12c6:	b0 2e       	mov	r11, r16
    12c8:	8f 2d       	mov	r24, r15
    12ca:	0e 94 19 0a 	call	0x1432	; 0x1432 <OWI_WriteBit0>
    12ce:	0f 5f       	subi	r16, 0xFF	; 255
    12d0:	11 0f       	add	r17, r17
    12d2:	11 f4       	brne	.+4      	; 0x12d8 <OWI_SearchRom+0x9a>
    12d4:	21 96       	adiw	r28, 0x01	; 1
    12d6:	1c 2d       	mov	r17, r12
    12d8:	01 34       	cpi	r16, 0x41	; 65
    12da:	31 f6       	brne	.-116    	; 0x1268 <OWI_SearchRom+0x2a>
    12dc:	02 c0       	rjmp	.+4      	; 0x12e2 <OWI_SearchRom+0xa4>
    12de:	8f ef       	ldi	r24, 0xFF	; 255
    12e0:	05 c0       	rjmp	.+10     	; 0x12ec <OWI_SearchRom+0xae>
    12e2:	8b 2d       	mov	r24, r11
    12e4:	03 c0       	rjmp	.+6      	; 0x12ec <OWI_SearchRom+0xae>
    12e6:	81 11       	cpse	r24, r1
    12e8:	ce cf       	rjmp	.-100    	; 0x1286 <OWI_SearchRom+0x48>
    12ea:	d3 cf       	rjmp	.-90     	; 0x1292 <OWI_SearchRom+0x54>
    12ec:	df 91       	pop	r29
    12ee:	cf 91       	pop	r28
    12f0:	1f 91       	pop	r17
    12f2:	0f 91       	pop	r16
    12f4:	ff 90       	pop	r15
    12f6:	ef 90       	pop	r14
    12f8:	df 90       	pop	r13
    12fa:	cf 90       	pop	r12
    12fc:	bf 90       	pop	r11
    12fe:	08 95       	ret

00001300 <OWI_SearchDevices>:
    1300:	8f 92       	push	r8
    1302:	9f 92       	push	r9
    1304:	af 92       	push	r10
    1306:	bf 92       	push	r11
    1308:	cf 92       	push	r12
    130a:	df 92       	push	r13
    130c:	ef 92       	push	r14
    130e:	ff 92       	push	r15
    1310:	0f 93       	push	r16
    1312:	1f 93       	push	r17
    1314:	cf 93       	push	r28
    1316:	df 93       	push	r29
    1318:	8c 01       	movw	r16, r24
    131a:	94 2e       	mov	r9, r20
    131c:	79 01       	movw	r14, r18
    131e:	66 23       	and	r22, r22
    1320:	71 f0       	breq	.+28     	; 0x133e <OWI_SearchDevices+0x3e>
    1322:	dc 01       	movw	r26, r24
    1324:	20 e0       	ldi	r18, 0x00	; 0
    1326:	88 e0       	ldi	r24, 0x08	; 8
    1328:	07 c0       	rjmp	.+14     	; 0x1338 <OWI_SearchDevices+0x38>
    132a:	11 92       	st	Z+, r1
    132c:	91 50       	subi	r25, 0x01	; 1
    132e:	e9 f7       	brne	.-6      	; 0x132a <OWI_SearchDevices+0x2a>
    1330:	2f 5f       	subi	r18, 0xFF	; 255
    1332:	18 96       	adiw	r26, 0x08	; 8
    1334:	26 17       	cp	r18, r22
    1336:	19 f0       	breq	.+6      	; 0x133e <OWI_SearchDevices+0x3e>
    1338:	fd 01       	movw	r30, r26
    133a:	98 2f       	mov	r25, r24
    133c:	f6 cf       	rjmp	.-20     	; 0x132a <OWI_SearchDevices+0x2a>
    133e:	c0 2e       	mov	r12, r16
    1340:	d1 2e       	mov	r13, r17
    1342:	e0 2f       	mov	r30, r16
    1344:	f1 2f       	mov	r31, r17
    1346:	b1 2c       	mov	r11, r1
    1348:	a1 2c       	mov	r10, r1
    134a:	68 94       	set
    134c:	88 24       	eor	r8, r8
    134e:	83 f8       	bld	r8, 3
    1350:	ac 2d       	mov	r26, r12
    1352:	bd 2d       	mov	r27, r13
    1354:	88 2d       	mov	r24, r8
    1356:	01 90       	ld	r0, Z+
    1358:	0d 92       	st	X+, r0
    135a:	8a 95       	dec	r24
    135c:	e1 f7       	brne	.-8      	; 0x1356 <OWI_SearchDevices+0x56>
    135e:	89 2d       	mov	r24, r9
    1360:	0e 94 4f 0a 	call	0x149e	; 0x149e <OWI_DetectPresence>
    1364:	88 23       	and	r24, r24
    1366:	61 f1       	breq	.+88     	; 0x13c0 <OWI_SearchDevices+0xc0>
    1368:	49 2d       	mov	r20, r9
    136a:	6a 2d       	mov	r22, r10
    136c:	8c 2d       	mov	r24, r12
    136e:	9d 2d       	mov	r25, r13
    1370:	0e 94 1f 09 	call	0x123e	; 0x123e <OWI_SearchRom>
    1374:	a8 2e       	mov	r10, r24
    1376:	b3 94       	inc	r11
    1378:	e8 01       	movw	r28, r16
    137a:	88 e0       	ldi	r24, 0x08	; 8
    137c:	b8 9e       	mul	r11, r24
    137e:	c0 0d       	add	r28, r0
    1380:	d1 1d       	adc	r29, r1
    1382:	11 24       	eor	r1, r1
    1384:	aa 20       	and	r10, r10
    1386:	29 f0       	breq	.+10     	; 0x1392 <OWI_SearchDevices+0x92>
    1388:	ec 2d       	mov	r30, r12
    138a:	fd 2d       	mov	r31, r13
    138c:	cc 2e       	mov	r12, r28
    138e:	dd 2e       	mov	r13, r29
    1390:	df cf       	rjmp	.-66     	; 0x1350 <OWI_SearchDevices+0x50>
    1392:	bb 20       	and	r11, r11
    1394:	b9 f0       	breq	.+46     	; 0x13c4 <OWI_SearchDevices+0xc4>
    1396:	d0 e0       	ldi	r29, 0x00	; 0
    1398:	c0 e0       	ldi	r28, 0x00	; 0
    139a:	dd 24       	eor	r13, r13
    139c:	d3 94       	inc	r13
    139e:	c8 01       	movw	r24, r16
    13a0:	0e 94 b7 08 	call	0x116e	; 0x116e <OWI_CheckRomCRC>
    13a4:	81 11       	cpse	r24, r1
    13a6:	05 c0       	rjmp	.+10     	; 0x13b2 <OWI_SearchDevices+0xb2>
    13a8:	f7 01       	movw	r30, r14
    13aa:	90 81       	ld	r25, Z
    13ac:	9f 5f       	subi	r25, 0xFF	; 255
    13ae:	90 83       	st	Z, r25
    13b0:	01 c0       	rjmp	.+2      	; 0x13b4 <OWI_SearchDevices+0xb4>
    13b2:	dd 2d       	mov	r29, r13
    13b4:	cf 5f       	subi	r28, 0xFF	; 255
    13b6:	08 5f       	subi	r16, 0xF8	; 248
    13b8:	1f 4f       	sbci	r17, 0xFF	; 255
    13ba:	cb 11       	cpse	r28, r11
    13bc:	f0 cf       	rjmp	.-32     	; 0x139e <OWI_SearchDevices+0x9e>
    13be:	04 c0       	rjmp	.+8      	; 0x13c8 <OWI_SearchDevices+0xc8>
    13c0:	8f ef       	ldi	r24, 0xFF	; 255
    13c2:	03 c0       	rjmp	.+6      	; 0x13ca <OWI_SearchDevices+0xca>
    13c4:	80 e0       	ldi	r24, 0x00	; 0
    13c6:	01 c0       	rjmp	.+2      	; 0x13ca <OWI_SearchDevices+0xca>
    13c8:	8d 2f       	mov	r24, r29
    13ca:	df 91       	pop	r29
    13cc:	cf 91       	pop	r28
    13ce:	1f 91       	pop	r17
    13d0:	0f 91       	pop	r16
    13d2:	ff 90       	pop	r15
    13d4:	ef 90       	pop	r14
    13d6:	df 90       	pop	r13
    13d8:	cf 90       	pop	r12
    13da:	bf 90       	pop	r11
    13dc:	af 90       	pop	r10
    13de:	9f 90       	pop	r9
    13e0:	8f 90       	pop	r8
    13e2:	08 95       	ret

000013e4 <OWI_Init>:
    13e4:	97 b1       	in	r25, 0x07	; 7
    13e6:	80 95       	com	r24
    13e8:	98 23       	and	r25, r24
    13ea:	97 b9       	out	0x07, r25	; 7
    13ec:	98 b1       	in	r25, 0x08	; 8
    13ee:	89 23       	and	r24, r25
    13f0:	88 b9       	out	0x08, r24	; 8
	#else
		//round up by default
		__ticks_dc = (uint32_t)(ceil(fabs(__tmp)));
	#endif

	__builtin_avr_delay_cycles(__ticks_dc);
    13f2:	8f eb       	ldi	r24, 0xBF	; 191
    13f4:	93 e0       	ldi	r25, 0x03	; 3
    13f6:	01 97       	sbiw	r24, 0x01	; 1
    13f8:	f1 f7       	brne	.-4      	; 0x13f6 <OWI_Init+0x12>
    13fa:	00 c0       	rjmp	.+0      	; 0x13fc <OWI_Init+0x18>
    13fc:	00 00       	nop
    13fe:	08 95       	ret

00001400 <OWI_WriteBit1>:
    1400:	9f b7       	in	r25, 0x3f	; 63
    1402:	f8 94       	cli
    1404:	27 b1       	in	r18, 0x07	; 7
    1406:	28 2b       	or	r18, r24
    1408:	27 b9       	out	0x07, r18	; 7
    140a:	28 b1       	in	r18, 0x08	; 8
    140c:	80 95       	com	r24
    140e:	28 23       	and	r18, r24
    1410:	28 b9       	out	0x08, r18	; 8
    1412:	2d e0       	ldi	r18, 0x0D	; 13
    1414:	2a 95       	dec	r18
    1416:	f1 f7       	brne	.-4      	; 0x1414 <OWI_WriteBit1+0x14>
    1418:	00 00       	nop
    141a:	27 b1       	in	r18, 0x07	; 7
    141c:	28 23       	and	r18, r24
    141e:	27 b9       	out	0x07, r18	; 7
    1420:	28 b1       	in	r18, 0x08	; 8
    1422:	82 23       	and	r24, r18
    1424:	88 b9       	out	0x08, r24	; 8
    1426:	8a ea       	ldi	r24, 0xAA	; 170
    1428:	8a 95       	dec	r24
    142a:	f1 f7       	brne	.-4      	; 0x1428 <OWI_WriteBit1+0x28>
    142c:	00 c0       	rjmp	.+0      	; 0x142e <OWI_WriteBit1+0x2e>
    142e:	9f bf       	out	0x3f, r25	; 63
    1430:	08 95       	ret

00001432 <OWI_WriteBit0>:
    1432:	9f b7       	in	r25, 0x3f	; 63
    1434:	f8 94       	cli
    1436:	27 b1       	in	r18, 0x07	; 7
    1438:	28 2b       	or	r18, r24
    143a:	27 b9       	out	0x07, r18	; 7
    143c:	28 b1       	in	r18, 0x08	; 8
    143e:	80 95       	com	r24
    1440:	28 23       	and	r18, r24
    1442:	28 b9       	out	0x08, r18	; 8
    1444:	20 ea       	ldi	r18, 0xA0	; 160
    1446:	2a 95       	dec	r18
    1448:	f1 f7       	brne	.-4      	; 0x1446 <OWI_WriteBit0+0x14>
    144a:	27 b1       	in	r18, 0x07	; 7
    144c:	28 23       	and	r18, r24
    144e:	27 b9       	out	0x07, r18	; 7
    1450:	28 b1       	in	r18, 0x08	; 8
    1452:	82 23       	and	r24, r18
    1454:	88 b9       	out	0x08, r24	; 8
    1456:	8a e1       	ldi	r24, 0x1A	; 26
    1458:	8a 95       	dec	r24
    145a:	f1 f7       	brne	.-4      	; 0x1458 <OWI_WriteBit0+0x26>
    145c:	00 c0       	rjmp	.+0      	; 0x145e <OWI_WriteBit0+0x2c>
    145e:	9f bf       	out	0x3f, r25	; 63
    1460:	08 95       	ret

00001462 <OWI_ReadBit>:
    1462:	2f b7       	in	r18, 0x3f	; 63
    1464:	f8 94       	cli
    1466:	97 b1       	in	r25, 0x07	; 7
    1468:	98 2b       	or	r25, r24
    146a:	97 b9       	out	0x07, r25	; 7
    146c:	38 b1       	in	r19, 0x08	; 8
    146e:	98 2f       	mov	r25, r24
    1470:	90 95       	com	r25
    1472:	39 23       	and	r19, r25
    1474:	38 b9       	out	0x08, r19	; 8
    1476:	30 e1       	ldi	r19, 0x10	; 16
    1478:	3a 95       	dec	r19
    147a:	f1 f7       	brne	.-4      	; 0x1478 <OWI_ReadBit+0x16>
    147c:	37 b1       	in	r19, 0x07	; 7
    147e:	39 23       	and	r19, r25
    1480:	37 b9       	out	0x07, r19	; 7
    1482:	38 b1       	in	r19, 0x08	; 8
    1484:	93 23       	and	r25, r19
    1486:	98 b9       	out	0x08, r25	; 8
    1488:	98 e1       	ldi	r25, 0x18	; 24
    148a:	9a 95       	dec	r25
    148c:	f1 f7       	brne	.-4      	; 0x148a <OWI_ReadBit+0x28>
    148e:	96 b1       	in	r25, 0x06	; 6
    1490:	32 e9       	ldi	r19, 0x92	; 146
    1492:	3a 95       	dec	r19
    1494:	f1 f7       	brne	.-4      	; 0x1492 <OWI_ReadBit+0x30>
    1496:	00 c0       	rjmp	.+0      	; 0x1498 <OWI_ReadBit+0x36>
    1498:	2f bf       	out	0x3f, r18	; 63
    149a:	89 23       	and	r24, r25
    149c:	08 95       	ret

0000149e <OWI_DetectPresence>:
    149e:	2f b7       	in	r18, 0x3f	; 63
    14a0:	f8 94       	cli
    14a2:	97 b1       	in	r25, 0x07	; 7
    14a4:	98 2b       	or	r25, r24
    14a6:	97 b9       	out	0x07, r25	; 7
    14a8:	38 b1       	in	r19, 0x08	; 8
    14aa:	98 2f       	mov	r25, r24
    14ac:	90 95       	com	r25
    14ae:	39 23       	and	r19, r25
    14b0:	38 b9       	out	0x08, r19	; 8
    14b2:	ef eb       	ldi	r30, 0xBF	; 191
    14b4:	f3 e0       	ldi	r31, 0x03	; 3
    14b6:	31 97       	sbiw	r30, 0x01	; 1
    14b8:	f1 f7       	brne	.-4      	; 0x14b6 <OWI_DetectPresence+0x18>
    14ba:	00 c0       	rjmp	.+0      	; 0x14bc <OWI_DetectPresence+0x1e>
    14bc:	00 00       	nop
    14be:	37 b1       	in	r19, 0x07	; 7
    14c0:	39 23       	and	r19, r25
    14c2:	37 b9       	out	0x07, r19	; 7
    14c4:	38 b1       	in	r19, 0x08	; 8
    14c6:	93 23       	and	r25, r19
    14c8:	98 b9       	out	0x08, r25	; 8
    14ca:	fa eb       	ldi	r31, 0xBA	; 186
    14cc:	fa 95       	dec	r31
    14ce:	f1 f7       	brne	.-4      	; 0x14cc <OWI_DetectPresence+0x2e>
    14d0:	00 c0       	rjmp	.+0      	; 0x14d2 <OWI_DetectPresence+0x34>
    14d2:	96 b1       	in	r25, 0x06	; 6
    14d4:	e3 e3       	ldi	r30, 0x33	; 51
    14d6:	f3 e0       	ldi	r31, 0x03	; 3
    14d8:	31 97       	sbiw	r30, 0x01	; 1
    14da:	f1 f7       	brne	.-4      	; 0x14d8 <OWI_DetectPresence+0x3a>
    14dc:	00 c0       	rjmp	.+0      	; 0x14de <OWI_DetectPresence+0x40>
    14de:	00 00       	nop
    14e0:	2f bf       	out	0x3f, r18	; 63
    14e2:	90 95       	com	r25
    14e4:	89 23       	and	r24, r25
    14e6:	08 95       	ret

000014e8 <Get_Temp_int>:
volatile char num_device = 0;//количество найденных устройств

uint8_t Get_Temp_int()
{
	char scratchpad_int[MAX_DEVICES][2];
	scratchpad_int[0][0]=scratchpad[0][0];
    14e8:	e4 e9       	ldi	r30, 0x94	; 148
    14ea:	f3 e0       	ldi	r31, 0x03	; 3
    14ec:	80 81       	ld	r24, Z
	scratchpad_int[0][1]=scratchpad[0][1];
    14ee:	21 81       	ldd	r18, Z+1	; 0x01
	uint8_t temperature;
	uint8_t znak_temper=0;// 0- минус 1-плюс
	unsigned int tmp = 0;
	/*выводим знак и преобразуем число, если оно отрицательное*/
	
	if ((scratchpad_int[0][1]&128) == 0) /*если 7-ой бит равен 0, значит число положительное*/
    14f0:	22 23       	and	r18, r18
    14f2:	8c f4       	brge	.+34     	; 0x1516 <Get_Temp_int+0x2e>
	}
	else
	{
		znak_temper=0;
		//нарисуем минус "-" :
		tmp = ((unsigned int)scratchpad_int[0][1]<<8)|scratchpad_int[0][0];
    14f4:	90 e0       	ldi	r25, 0x00	; 0
    14f6:	92 2b       	or	r25, r18
		tmp = ~tmp + 1;
    14f8:	91 95       	neg	r25
    14fa:	81 95       	neg	r24
    14fc:	91 09       	sbc	r25, r1
		scratchpad_int[0][0] = tmp;
		scratchpad_int[0][1] = tmp>>8;
	}
	//LcdGotoXYFont(4,n+1);
	/*выводим значение целое знач. температуры*/
	temperature = (scratchpad_int[0][0]>>4)|((scratchpad_int[0][1]&7)<<4);
    14fe:	29 2f       	mov	r18, r25
    1500:	27 70       	andi	r18, 0x07	; 7
    1502:	40 e1       	ldi	r20, 0x10	; 16
    1504:	24 9f       	mul	r18, r20
    1506:	90 01       	movw	r18, r0
    1508:	11 24       	eor	r1, r1
    150a:	82 95       	swap	r24
    150c:	8f 70       	andi	r24, 0x0F	; 15
    150e:	28 2b       	or	r18, r24
	if (znak_temper == 0) /*если -*/
	{
		temperature=128-temperature;
    1510:	80 e8       	ldi	r24, 0x80	; 128
    1512:	82 1b       	sub	r24, r18
    1514:	08 95       	ret
		scratchpad_int[0][0] = tmp;
		scratchpad_int[0][1] = tmp>>8;
	}
	//LcdGotoXYFont(4,n+1);
	/*выводим значение целое знач. температуры*/
	temperature = (scratchpad_int[0][0]>>4)|((scratchpad_int[0][1]&7)<<4);
    1516:	27 70       	andi	r18, 0x07	; 7
    1518:	90 e1       	ldi	r25, 0x10	; 16
    151a:	29 9f       	mul	r18, r25
    151c:	90 01       	movw	r18, r0
    151e:	11 24       	eor	r1, r1
    1520:	82 95       	swap	r24
    1522:	8f 70       	andi	r24, 0x0F	; 15
    1524:	82 2b       	or	r24, r18
		temperature=128-temperature;
		//нарисуем плюс "+" :
	}
	else
	{
		temperature=128+temperature;
    1526:	80 58       	subi	r24, 0x80	; 128
	}
	return temperature;
}
    1528:	08 95       	ret

0000152a <Init_Temperatura>:

void Init_Temperatura()
{
    152a:	8f 92       	push	r8
    152c:	9f 92       	push	r9
    152e:	af 92       	push	r10
    1530:	bf 92       	push	r11
    1532:	cf 92       	push	r12
    1534:	df 92       	push	r13
    1536:	ef 92       	push	r14
    1538:	ff 92       	push	r15
    153a:	0f 93       	push	r16
    153c:	1f 93       	push	r17
    153e:	cf 93       	push	r28
    1540:	df 93       	push	r29
    1542:	cd b7       	in	r28, 0x3d	; 61
    1544:	de b7       	in	r29, 0x3e	; 62
    1546:	2f 97       	sbiw	r28, 0x0f	; 15
    1548:	0f b6       	in	r0, 0x3f	; 63
    154a:	f8 94       	cli
    154c:	de bf       	out	0x3e, r29	; 62
    154e:	0f be       	out	0x3f, r0	; 63
    1550:	cd bf       	out	0x3d, r28	; 61
	OWI_Init(BUS);
    1552:	88 e0       	ldi	r24, 0x08	; 8
    1554:	0e 94 f2 09 	call	0x13e4	; 0x13e4 <OWI_Init>
	//unsigned char num= 0;
	uint8_t num = 0;
    1558:	19 82       	std	Y+1, r1	; 0x01
	//Получение адресов 1-Wire устройств.
	//Посылаем команду SEARCH ROM, получаем адреса нескольких 1-Wire устройств,
	// сохраняет их и проверяет контрольную сумму каждого адреса.
	//printf("поиск 1-Wire");
	//send_Uart(13);
	OWI_SearchDevices(allDevices, MAX_DEVICES, BUS, &num);
    155a:	9e 01       	movw	r18, r28
    155c:	2f 5f       	subi	r18, 0xFF	; 255
    155e:	3f 4f       	sbci	r19, 0xFF	; 255
    1560:	48 e0       	ldi	r20, 0x08	; 8
    1562:	65 e0       	ldi	r22, 0x05	; 5
    1564:	8e e9       	ldi	r24, 0x9E	; 158
    1566:	93 e0       	ldi	r25, 0x03	; 3
    1568:	0e 94 80 09 	call	0x1300	; 0x1300 <OWI_SearchDevices>
	//сохраним сколько нашли устройств
	num_device = num; 
    156c:	89 81       	ldd	r24, Y+1	; 0x01
    156e:	80 93 78 03 	sts	0x0378, r24
		#if LCD_TYPE==1
		char str[14];
		//unsigned char* id1;
		//printf("LCD!");
		//send_Uart(13);
		LcdClear();
    1572:	0e 94 69 02 	call	0x4d2	; 0x4d2 <LcdClear>
		LcdGotoXYFont(0,0);
    1576:	60 e0       	ldi	r22, 0x00	; 0
    1578:	80 e0       	ldi	r24, 0x00	; 0
    157a:	0e 94 0f 03 	call	0x61e	; 0x61e <LcdGotoXYFont>
		//LcdFStr(FONT_1X,(unsigned char*)PSTR("Найдено "));
		sprintf(str, "Найдено %u дт.", num);
    157e:	89 81       	ldd	r24, Y+1	; 0x01
    1580:	1f 92       	push	r1
    1582:	8f 93       	push	r24
    1584:	8a e1       	ldi	r24, 0x1A	; 26
    1586:	91 e0       	ldi	r25, 0x01	; 1
    1588:	9f 93       	push	r25
    158a:	8f 93       	push	r24
    158c:	8e 01       	movw	r16, r28
    158e:	0e 5f       	subi	r16, 0xFE	; 254
    1590:	1f 4f       	sbci	r17, 0xFF	; 255
    1592:	1f 93       	push	r17
    1594:	0f 93       	push	r16
    1596:	0e 94 3e 0d 	call	0x1a7c	; 0x1a7c <sprintf>
		LcdStr(FONT_1X, &str);
    159a:	b8 01       	movw	r22, r16
    159c:	81 e0       	ldi	r24, 0x01	; 1
    159e:	0e 94 14 04 	call	0x828	; 0x828 <LcdStr>
		LcdUpdate();		
    15a2:	0e 94 81 02 	call	0x502	; 0x502 <LcdUpdate>
		//printf("Найдено %u устройств",num);
		//send_Uart(13);
		//Для каждого из найденных устройств:
		i=0;
		while(i<=num_device-1)
    15a6:	80 91 78 03 	lds	r24, 0x0378
    15aa:	90 e0       	ldi	r25, 0x00	; 0
    15ac:	01 97       	sbiw	r24, 0x01	; 1
    15ae:	0f 90       	pop	r0
    15b0:	0f 90       	pop	r0
    15b2:	0f 90       	pop	r0
    15b4:	0f 90       	pop	r0
    15b6:	0f 90       	pop	r0
    15b8:	0f 90       	pop	r0
    15ba:	0a f4       	brpl	.+2      	; 0x15be <Init_Temperatura+0x94>
    15bc:	71 c0       	rjmp	.+226    	; 0x16a0 <Init_Temperatura+0x176>
    15be:	88 24       	eor	r8, r8
    15c0:	83 94       	inc	r8
    15c2:	00 e0       	ldi	r16, 0x00	; 0
    15c4:	10 e0       	ldi	r17, 0x00	; 0
    15c6:	91 2c       	mov	r9, r1
		{
			//Отправим в LCD данные найденных датчиков
			LcdGotoXYFont(0,i*2+1);
			sprintf(str, "ROM датчика %u:", i);
    15c8:	0f 2e       	mov	r0, r31
    15ca:	f9 e2       	ldi	r31, 0x29	; 41
    15cc:	af 2e       	mov	r10, r31
    15ce:	f1 e0       	ldi	r31, 0x01	; 1
    15d0:	bf 2e       	mov	r11, r31
    15d2:	f0 2d       	mov	r31, r0
    15d4:	7e 01       	movw	r14, r28
    15d6:	22 e0       	ldi	r18, 0x02	; 2
    15d8:	e2 0e       	add	r14, r18
    15da:	f1 1c       	adc	r15, r1
			//LcdFStr(FONT_1X,(unsigned char*)PSTR("Найдено "));
			//send_Uart_str("Датчик № ");
			//printf("%u ",i );
			//send_Uart_str(" ROM CODE: ");
			id1=allDevices[i].id;
			sprintf(str, "%.2X%.2X%.2X%.2X%.2X%.2X%.2X", id1[6],id1[5],id1[4], id1[3],id1[2],id1[1],id1[0]);
    15dc:	0f 2e       	mov	r0, r31
    15de:	f9 e3       	ldi	r31, 0x39	; 57
    15e0:	cf 2e       	mov	r12, r31
    15e2:	f1 e0       	ldi	r31, 0x01	; 1
    15e4:	df 2e       	mov	r13, r31
    15e6:	f0 2d       	mov	r31, r0
		//Для каждого из найденных устройств:
		i=0;
		while(i<=num_device-1)
		{
			//Отправим в LCD данные найденных датчиков
			LcdGotoXYFont(0,i*2+1);
    15e8:	68 2d       	mov	r22, r8
    15ea:	80 e0       	ldi	r24, 0x00	; 0
    15ec:	0e 94 0f 03 	call	0x61e	; 0x61e <LcdGotoXYFont>
			sprintf(str, "ROM датчика %u:", i);
    15f0:	1f 93       	push	r17
    15f2:	0f 93       	push	r16
    15f4:	bf 92       	push	r11
    15f6:	af 92       	push	r10
    15f8:	ff 92       	push	r15
    15fa:	ef 92       	push	r14
    15fc:	0e 94 3e 0d 	call	0x1a7c	; 0x1a7c <sprintf>
			LcdStr(FONT_1X, &str);
    1600:	b7 01       	movw	r22, r14
    1602:	81 e0       	ldi	r24, 0x01	; 1
    1604:	0e 94 14 04 	call	0x828	; 0x828 <LcdStr>
			LcdGotoXYFont(0,i*2+2);
    1608:	b8 01       	movw	r22, r16
    160a:	6f 5f       	subi	r22, 0xFF	; 255
    160c:	7f 4f       	sbci	r23, 0xFF	; 255
    160e:	66 0f       	add	r22, r22
    1610:	80 e0       	ldi	r24, 0x00	; 0
    1612:	0e 94 0f 03 	call	0x61e	; 0x61e <LcdGotoXYFont>
			//LcdFStr(FONT_1X,(unsigned char*)PSTR("Найдено "));
			//send_Uart_str("Датчик № ");
			//printf("%u ",i );
			//send_Uart_str(" ROM CODE: ");
			id1=allDevices[i].id;
    1616:	f8 01       	movw	r30, r16
    1618:	ee 0f       	add	r30, r30
    161a:	ff 1f       	adc	r31, r31
    161c:	ee 0f       	add	r30, r30
    161e:	ff 1f       	adc	r31, r31
    1620:	ee 0f       	add	r30, r30
    1622:	ff 1f       	adc	r31, r31
    1624:	e2 56       	subi	r30, 0x62	; 98
    1626:	fc 4f       	sbci	r31, 0xFC	; 252
			sprintf(str, "%.2X%.2X%.2X%.2X%.2X%.2X%.2X", id1[6],id1[5],id1[4], id1[3],id1[2],id1[1],id1[0]);
    1628:	80 81       	ld	r24, Z
    162a:	1f 92       	push	r1
    162c:	8f 93       	push	r24
    162e:	81 81       	ldd	r24, Z+1	; 0x01
    1630:	1f 92       	push	r1
    1632:	8f 93       	push	r24
    1634:	82 81       	ldd	r24, Z+2	; 0x02
    1636:	1f 92       	push	r1
    1638:	8f 93       	push	r24
    163a:	83 81       	ldd	r24, Z+3	; 0x03
    163c:	1f 92       	push	r1
    163e:	8f 93       	push	r24
    1640:	84 81       	ldd	r24, Z+4	; 0x04
    1642:	1f 92       	push	r1
    1644:	8f 93       	push	r24
    1646:	85 81       	ldd	r24, Z+5	; 0x05
    1648:	1f 92       	push	r1
    164a:	8f 93       	push	r24
    164c:	86 81       	ldd	r24, Z+6	; 0x06
    164e:	1f 92       	push	r1
    1650:	8f 93       	push	r24
    1652:	df 92       	push	r13
    1654:	cf 92       	push	r12
    1656:	ff 92       	push	r15
    1658:	ef 92       	push	r14
    165a:	0e 94 3e 0d 	call	0x1a7c	; 0x1a7c <sprintf>
			LcdStr(FONT_1X, &str);
    165e:	b7 01       	movw	r22, r14
    1660:	81 e0       	ldi	r24, 0x01	; 1
    1662:	0e 94 14 04 	call	0x828	; 0x828 <LcdStr>
			LcdUpdate();
    1666:	0e 94 81 02 	call	0x502	; 0x502 <LcdUpdate>
			//send_Uart(13);
			i++;
    166a:	93 94       	inc	r9
	#else
		//round up by default
		__ticks_dc = (uint32_t)(ceil(fabs(__tmp)));
	#endif

	__builtin_avr_delay_cycles(__ticks_dc);
    166c:	3f e3       	ldi	r19, 0x3F	; 63
    166e:	8d e0       	ldi	r24, 0x0D	; 13
    1670:	93 e0       	ldi	r25, 0x03	; 3
    1672:	31 50       	subi	r19, 0x01	; 1
    1674:	80 40       	sbci	r24, 0x00	; 0
    1676:	90 40       	sbci	r25, 0x00	; 0
    1678:	e1 f7       	brne	.-8      	; 0x1672 <Init_Temperatura+0x148>
    167a:	00 c0       	rjmp	.+0      	; 0x167c <Init_Temperatura+0x152>
    167c:	00 00       	nop
		LcdUpdate();		
		//printf("Найдено %u устройств",num);
		//send_Uart(13);
		//Для каждого из найденных устройств:
		i=0;
		while(i<=num_device-1)
    167e:	09 2d       	mov	r16, r9
    1680:	10 e0       	ldi	r17, 0x00	; 0
    1682:	80 91 78 03 	lds	r24, 0x0378
    1686:	83 94       	inc	r8
    1688:	83 94       	inc	r8
    168a:	90 e0       	ldi	r25, 0x00	; 0
    168c:	01 97       	sbiw	r24, 0x01	; 1
    168e:	0f b6       	in	r0, 0x3f	; 63
    1690:	f8 94       	cli
    1692:	de bf       	out	0x3e, r29	; 62
    1694:	0f be       	out	0x3f, r0	; 63
    1696:	cd bf       	out	0x3d, r28	; 61
    1698:	80 17       	cp	r24, r16
    169a:	91 07       	cpc	r25, r17
    169c:	0c f0       	brlt	.+2      	; 0x16a0 <Init_Temperatura+0x176>
    169e:	a4 cf       	rjmp	.-184    	; 0x15e8 <Init_Temperatura+0xbe>
			}
		#endif
		
	#endif
	//подаем сигнал сброса
	OWI_DetectPresence(BUS);
    16a0:	88 e0       	ldi	r24, 0x08	; 8
    16a2:	0e 94 4f 0a 	call	0x149e	; 0x149e <OWI_DetectPresence>
	//команду для адресации всех устройств на шине
	OWI_SkipRom(BUS);
    16a6:	88 e0       	ldi	r24, 0x08	; 8
    16a8:	0e 94 00 09 	call	0x1200	; 0x1200 <OWI_SkipRom>
	//подаем команду - запук преобразования 
	OWI_SendByte(DS18B20_CONVERT_T ,BUS);
    16ac:	68 e0       	ldi	r22, 0x08	; 8
    16ae:	84 e4       	ldi	r24, 0x44	; 68
    16b0:	0e 94 d7 08 	call	0x11ae	; 0x11ae <OWI_SendByte>
	//для будущих считываний
}
    16b4:	2f 96       	adiw	r28, 0x0f	; 15
    16b6:	0f b6       	in	r0, 0x3f	; 63
    16b8:	f8 94       	cli
    16ba:	de bf       	out	0x3e, r29	; 62
    16bc:	0f be       	out	0x3f, r0	; 63
    16be:	cd bf       	out	0x3d, r28	; 61
    16c0:	df 91       	pop	r29
    16c2:	cf 91       	pop	r28
    16c4:	1f 91       	pop	r17
    16c6:	0f 91       	pop	r16
    16c8:	ff 90       	pop	r15
    16ca:	ef 90       	pop	r14
    16cc:	df 90       	pop	r13
    16ce:	cf 90       	pop	r12
    16d0:	bf 90       	pop	r11
    16d2:	af 90       	pop	r10
    16d4:	9f 90       	pop	r9
    16d6:	8f 90       	pop	r8
    16d8:	08 95       	ret

000016da <Get_all_Temperatura>:

void Get_all_Temperatura()
{
    16da:	1f 93       	push	r17
    16dc:	cf 93       	push	r28
    16de:	df 93       	push	r29
// 	{
// 	
// 	};

//Для каждого из найденных устройств:
	while (n<=num_device-1)
    16e0:	80 91 78 03 	lds	r24, 0x0378
    16e4:	90 e0       	ldi	r25, 0x00	; 0
    16e6:	01 97       	sbiw	r24, 0x01	; 1
    16e8:	62 f1       	brmi	.+88     	; 0x1742 <Get_all_Temperatura+0x68>
    16ea:	c0 e0       	ldi	r28, 0x00	; 0
    16ec:	d0 e0       	ldi	r29, 0x00	; 0
    16ee:	10 e0       	ldi	r17, 0x00	; 0
		/*подаем сигнал сброса
		команду для адресации n-го устройства на шине
		команду - чтение внутренней памяти
		затем считываем внутреннюю память датчика в массив
		*/
		OWI_DetectPresence(BUS);
    16f0:	88 e0       	ldi	r24, 0x08	; 8
    16f2:	0e 94 4f 0a 	call	0x149e	; 0x149e <OWI_DetectPresence>
		OWI_MatchRom(allDevices[n].id, BUS);
    16f6:	ce 01       	movw	r24, r28
    16f8:	88 0f       	add	r24, r24
    16fa:	99 1f       	adc	r25, r25
    16fc:	88 0f       	add	r24, r24
    16fe:	99 1f       	adc	r25, r25
    1700:	88 0f       	add	r24, r24
    1702:	99 1f       	adc	r25, r25
    1704:	68 e0       	ldi	r22, 0x08	; 8
    1706:	82 56       	subi	r24, 0x62	; 98
    1708:	9c 4f       	sbci	r25, 0xFC	; 252
    170a:	0e 94 05 09 	call	0x120a	; 0x120a <OWI_MatchRom>
		OWI_SendByte(DS18B20_READ_SCRATCHPAD, BUS);
    170e:	68 e0       	ldi	r22, 0x08	; 8
    1710:	8e eb       	ldi	r24, 0xBE	; 190
    1712:	0e 94 d7 08 	call	0x11ae	; 0x11ae <OWI_SendByte>
		scratchpad[n][0] = OWI_ReceiveByte(BUS);
    1716:	88 e0       	ldi	r24, 0x08	; 8
    1718:	0e 94 ed 08 	call	0x11da	; 0x11da <OWI_ReceiveByte>
    171c:	cc 0f       	add	r28, r28
    171e:	dd 1f       	adc	r29, r29
    1720:	cc 56       	subi	r28, 0x6C	; 108
    1722:	dc 4f       	sbci	r29, 0xFC	; 252
    1724:	88 83       	st	Y, r24
		//message_unit[0].GET_TEMP[0]=scratchpad[0];
		scratchpad[n][1] = OWI_ReceiveByte(BUS);
    1726:	88 e0       	ldi	r24, 0x08	; 8
    1728:	0e 94 ed 08 	call	0x11da	; 0x11da <OWI_ReceiveByte>
    172c:	89 83       	std	Y+1, r24	; 0x01
		//	message_unit[0].GET_TEMP[1]=scratchpad[1];
		n++;
    172e:	1f 5f       	subi	r17, 0xFF	; 255
// 	{
// 	
// 	};

//Для каждого из найденных устройств:
	while (n<=num_device-1)
    1730:	c1 2f       	mov	r28, r17
    1732:	d0 e0       	ldi	r29, 0x00	; 0
    1734:	80 91 78 03 	lds	r24, 0x0378
    1738:	90 e0       	ldi	r25, 0x00	; 0
    173a:	01 97       	sbiw	r24, 0x01	; 1
    173c:	8c 17       	cp	r24, r28
    173e:	9d 07       	cpc	r25, r29
    1740:	bc f6       	brge	.-82     	; 0x16f0 <Get_all_Temperatura+0x16>
		n++;
	}
//подаем сигнал сброса
//команду для адресации всех устройств на шине
//подаем команду - запук преобразования *
OWI_DetectPresence(BUS);
    1742:	88 e0       	ldi	r24, 0x08	; 8
    1744:	0e 94 4f 0a 	call	0x149e	; 0x149e <OWI_DetectPresence>
OWI_SkipRom(BUS);
    1748:	88 e0       	ldi	r24, 0x08	; 8
    174a:	0e 94 00 09 	call	0x1200	; 0x1200 <OWI_SkipRom>
OWI_SendByte(DS18B20_CONVERT_T ,BUS);
    174e:	68 e0       	ldi	r22, 0x08	; 8
    1750:	84 e4       	ldi	r24, 0x44	; 68
    1752:	0e 94 d7 08 	call	0x11ae	; 0x11ae <OWI_SendByte>
}
    1756:	df 91       	pop	r29
    1758:	cf 91       	pop	r28
    175a:	1f 91       	pop	r17
    175c:	08 95       	ret

0000175e <Set_Temp_to_LCD>:

void Set_Temp_to_LCD()
{
    175e:	5f 92       	push	r5
    1760:	6f 92       	push	r6
    1762:	7f 92       	push	r7
    1764:	8f 92       	push	r8
    1766:	9f 92       	push	r9
    1768:	af 92       	push	r10
    176a:	bf 92       	push	r11
    176c:	cf 92       	push	r12
    176e:	df 92       	push	r13
    1770:	ef 92       	push	r14
    1772:	ff 92       	push	r15
    1774:	0f 93       	push	r16
    1776:	1f 93       	push	r17
    1778:	cf 93       	push	r28
    177a:	df 93       	push	r29
    177c:	cd b7       	in	r28, 0x3d	; 61
    177e:	de b7       	in	r29, 0x3e	; 62
    1780:	68 97       	sbiw	r28, 0x18	; 24
    1782:	0f b6       	in	r0, 0x3f	; 63
    1784:	f8 94       	cli
    1786:	de bf       	out	0x3e, r29	; 62
    1788:	0f be       	out	0x3f, r0	; 63
    178a:	cd bf       	out	0x3d, r28	; 61
	#if LCD_IS_USED==1
		//KEY_V_BAT_ON();
		Get_all_Temperatura();//(10 ms)
    178c:	0e 94 6d 0b 	call	0x16da	; 0x16da <Get_all_Temperatura>
		
		unsigned char n=0;
		#if LCD_TYPE==1
			char str[14];
			//LcdClear();
			while(n<=num_device-1)
    1790:	80 91 78 03 	lds	r24, 0x0378
    1794:	90 e0       	ldi	r25, 0x00	; 0
    1796:	01 97       	sbiw	r24, 0x01	; 1
    1798:	0a f4       	brpl	.+2      	; 0x179c <Set_Temp_to_LCD+0x3e>
    179a:	08 c1       	rjmp	.+528    	; 0x19ac <Set_Temp_to_LCD+0x24e>
    179c:	e1 2c       	mov	r14, r1
    179e:	f1 2c       	mov	r15, r1
    17a0:	71 2c       	mov	r7, r1
					{
						//если плюс
						LcdFStr(FONT_2X,(unsigned char*)PSTR("+"));
					}
					
					sprintf(str, "%3u", temperature);
    17a2:	0f 2e       	mov	r0, r31
    17a4:	f6 e5       	ldi	r31, 0x56	; 86
    17a6:	8f 2e       	mov	r8, r31
    17a8:	f1 e0       	ldi	r31, 0x01	; 1
    17aa:	9f 2e       	mov	r9, r31
    17ac:	f0 2d       	mov	r31, r0
    17ae:	6e 01       	movw	r12, r28
    17b0:	2b e0       	ldi	r18, 0x0B	; 11
    17b2:	c2 0e       	add	r12, r18
    17b4:	d1 1c       	adc	r13, r1
					temperature = (scratchpad[n][0]&15);
					temperature = (temperature<<1) + (temperature<<3);
					temperature = (temperature>>4);
					
					LcdGotoXYFont(8,1);
					sprintf(str, ".%u", temperature);
    17b6:	0f 2e       	mov	r0, r31
    17b8:	fa e5       	ldi	r31, 0x5A	; 90
    17ba:	af 2e       	mov	r10, r31
    17bc:	f1 e0       	ldi	r31, 0x01	; 1
    17be:	bf 2e       	mov	r11, r31
    17c0:	f0 2d       	mov	r31, r0
					}
					if (temperature>=10)
					{
						/*выводим десятки*/
						//KEY_V_BAT_ON();
						LcdBarsFontNumber(temperature/10,0);
    17c2:	0f 2e       	mov	r0, r31
    17c4:	fd ec       	ldi	r31, 0xCD	; 205
    17c6:	6f 2e       	mov	r6, r31
    17c8:	f0 2d       	mov	r31, r0
		#if LCD_TYPE==1
			char str[14];
			//LcdClear();
			while(n<=num_device-1)
			{
				scratchpad_lcd[n][0]=scratchpad[n][0];
    17ca:	f7 01       	movw	r30, r14
    17cc:	ee 0f       	add	r30, r30
    17ce:	ff 1f       	adc	r31, r31
    17d0:	df 01       	movw	r26, r30
    17d2:	ac 56       	subi	r26, 0x6C	; 108
    17d4:	bc 4f       	sbci	r27, 0xFC	; 252
    17d6:	8c 91       	ld	r24, X
    17d8:	21 e0       	ldi	r18, 0x01	; 1
    17da:	30 e0       	ldi	r19, 0x00	; 0
    17dc:	2c 0f       	add	r18, r28
    17de:	3d 1f       	adc	r19, r29
    17e0:	e2 0f       	add	r30, r18
    17e2:	f3 1f       	adc	r31, r19
    17e4:	80 83       	st	Z, r24
				scratchpad_lcd[n][1]=scratchpad[n][1];
    17e6:	11 96       	adiw	r26, 0x01	; 1
    17e8:	8c 91       	ld	r24, X
    17ea:	81 83       	std	Z+1, r24	; 0x01
					//LcdFStr(FONT_1X,(unsigned char*)PSTR("т-ра "));
				//LcdGotoXYFont(1,1);
				//LcdSingleBar(0,31,31,83,PIXEL_OFF);//очистим полоску "координаты нижнего левого угла"(Y,X,высота,ширина, стереть или закрасить) полоски
				/*выводим знак и преобразуем число, если оно отрицательное*/
				//LCD_Goto(5,0);
				if ((scratchpad_lcd[n][1]&128) == 0) /*если 7-ой бит равен 0, значит число положительное*/
    17ec:	88 23       	and	r24, r24
    17ee:	0c f0       	brlt	.+2      	; 0x17f2 <Set_Temp_to_LCD+0x94>
    17f0:	97 c0       	rjmp	.+302    	; 0x1920 <Set_Temp_to_LCD+0x1c2>
					//LcdStr(FONT_2X, &str);
					
					////LcdFStr(FONT_BIG_I,(unsigned char*)PSTR("-"));
					////send_Uart_str("-");
					////LCD_WriteData('-');
					tmp = ((unsigned int)scratchpad_lcd[n][1]<<8)|scratchpad_lcd[n][0];
    17f2:	90 e0       	ldi	r25, 0x00	; 0
    17f4:	98 2f       	mov	r25, r24
    17f6:	88 27       	eor	r24, r24
    17f8:	f7 01       	movw	r30, r14
    17fa:	ee 0f       	add	r30, r30
    17fc:	ff 1f       	adc	r31, r31
    17fe:	e2 0f       	add	r30, r18
    1800:	f3 1f       	adc	r31, r19
    1802:	20 81       	ld	r18, Z
    1804:	82 2b       	or	r24, r18
					tmp = ~tmp + 1;
    1806:	91 95       	neg	r25
    1808:	81 95       	neg	r24
    180a:	91 09       	sbc	r25, r1
					scratchpad_lcd[n][0] = tmp;
    180c:	80 83       	st	Z, r24
					scratchpad_lcd[n][1] = tmp>>8;
    180e:	91 83       	std	Z+1, r25	; 0x01
				}
				//LcdGotoXYFont(4,n+1);
				/*выводим значение целое знач. температуры*/
				temperature = (scratchpad_lcd[n][0]>>4)|((scratchpad_lcd[n][1]&7)<<4);
    1810:	29 2f       	mov	r18, r25
    1812:	27 70       	andi	r18, 0x07	; 7
    1814:	80 e1       	ldi	r24, 0x10	; 16
    1816:	28 9f       	mul	r18, r24
    1818:	90 01       	movw	r18, r0
    181a:	11 24       	eor	r1, r1
    181c:	80 81       	ld	r24, Z
    181e:	82 95       	swap	r24
    1820:	8f 70       	andi	r24, 0x0F	; 15
    1822:	58 2e       	mov	r5, r24
    1824:	52 2a       	or	r5, r18
				//Извращаемся с выводом цыфр на экран :(
				if (temperature < 100)
    1826:	93 e6       	ldi	r25, 0x63	; 99
    1828:	95 15       	cp	r25, r5
    182a:	08 f4       	brcc	.+2      	; 0x182e <Set_Temp_to_LCD+0xd0>
    182c:	ab c0       	rjmp	.+342    	; 0x1984 <Set_Temp_to_LCD+0x226>
					//LcdSingleBar(0,31,32,17,PIXEL_OFF);//очистим полоску "координаты нижнего левого угла"(Y,X,высота,ширина, стереть или закрасить) полоски
					//KEY_V_BAT_OFF();
					if (znak_temper==0)
					{
						//если минус
						LcdSingleBar(0,17,4,12,PIXEL_ON);//- горизонтальная линия (минус)
    182e:	01 e0       	ldi	r16, 0x01	; 1
    1830:	2c e0       	ldi	r18, 0x0C	; 12
    1832:	44 e0       	ldi	r20, 0x04	; 4
    1834:	61 e1       	ldi	r22, 0x11	; 17
    1836:	80 e0       	ldi	r24, 0x00	; 0
    1838:	0e 94 aa 04 	call	0x954	; 0x954 <LcdSingleBar>
    183c:	0d c0       	rjmp	.+26     	; 0x1858 <Set_Temp_to_LCD+0xfa>
					} 
					else
					{
						//если плюс
						LcdSingleBar(0,17,4,12,PIXEL_ON);//- горизонтальная линия
    183e:	01 e0       	ldi	r16, 0x01	; 1
    1840:	2c e0       	ldi	r18, 0x0C	; 12
    1842:	44 e0       	ldi	r20, 0x04	; 4
    1844:	61 e1       	ldi	r22, 0x11	; 17
    1846:	80 e0       	ldi	r24, 0x00	; 0
    1848:	0e 94 aa 04 	call	0x954	; 0x954 <LcdSingleBar>
						LcdSingleBar(4,21,12,4,PIXEL_ON);//| вертикальная линия
    184c:	24 e0       	ldi	r18, 0x04	; 4
    184e:	4c e0       	ldi	r20, 0x0C	; 12
    1850:	65 e1       	ldi	r22, 0x15	; 21
    1852:	84 e0       	ldi	r24, 0x04	; 4
    1854:	0e 94 aa 04 	call	0x954	; 0x954 <LcdSingleBar>
					}
					if (temperature<10)
    1858:	29 e0       	ldi	r18, 0x09	; 9
    185a:	25 15       	cp	r18, r5
    185c:	08 f4       	brcc	.+2      	; 0x1860 <Set_Temp_to_LCD+0x102>
    185e:	79 c0       	rjmp	.+242    	; 0x1952 <Set_Temp_to_LCD+0x1f4>
					{
						LcdBarsFontNumber(temperature,1);
    1860:	61 e0       	ldi	r22, 0x01	; 1
    1862:	70 e0       	ldi	r23, 0x00	; 0
    1864:	85 2d       	mov	r24, r5
    1866:	90 e0       	ldi	r25, 0x00	; 0
    1868:	0e 94 ef 04 	call	0x9de	; 0x9de <LcdBarsFontNumber>
						temperature_i=temperature/10;
						/*выводим единицы*/
						LcdBarsFontNumber((temperature-(temperature_i*10)),1);
					}
					/*выводим дробную часть знач. температуры*/
					temperature = (scratchpad[n][0]&15);
    186c:	f7 01       	movw	r30, r14
    186e:	ee 0f       	add	r30, r30
    1870:	ff 1f       	adc	r31, r31
    1872:	ec 56       	subi	r30, 0x6C	; 108
    1874:	fc 4f       	sbci	r31, 0xFC	; 252
    1876:	90 81       	ld	r25, Z
    1878:	9f 70       	andi	r25, 0x0F	; 15
					temperature = (temperature<<1) + (temperature<<3);
    187a:	19 2f       	mov	r17, r25
    187c:	11 0f       	add	r17, r17
    187e:	99 0f       	add	r25, r25
    1880:	99 0f       	add	r25, r25
    1882:	99 0f       	add	r25, r25
    1884:	19 0f       	add	r17, r25
					temperature = (temperature>>4);
					
					LcdSingleBar(54,31,4,4,PIXEL_ON);
    1886:	01 e0       	ldi	r16, 0x01	; 1
    1888:	24 e0       	ldi	r18, 0x04	; 4
    188a:	44 e0       	ldi	r20, 0x04	; 4
    188c:	6f e1       	ldi	r22, 0x1F	; 31
    188e:	86 e3       	ldi	r24, 0x36	; 54
    1890:	0e 94 aa 04 	call	0x954	; 0x954 <LcdSingleBar>
						LcdBarsFontNumber((temperature-(temperature_i*10)),1);
					}
					/*выводим дробную часть знач. температуры*/
					temperature = (scratchpad[n][0]&15);
					temperature = (temperature<<1) + (temperature<<3);
					temperature = (temperature>>4);
    1894:	81 2f       	mov	r24, r17
    1896:	82 95       	swap	r24
    1898:	8f 70       	andi	r24, 0x0F	; 15
					
					LcdSingleBar(54,31,4,4,PIXEL_ON);
					LcdBarsFontNumber(temperature,2);
    189a:	62 e0       	ldi	r22, 0x02	; 2
    189c:	70 e0       	ldi	r23, 0x00	; 0
    189e:	90 e0       	ldi	r25, 0x00	; 0
    18a0:	0e 94 ef 04 	call	0x9de	; 0x9de <LcdBarsFontNumber>
    18a4:	31 c0       	rjmp	.+98     	; 0x1908 <Set_Temp_to_LCD+0x1aa>
					{
						//если плюс
						LcdFStr(FONT_2X,(unsigned char*)PSTR("+"));
					}
					
					sprintf(str, "%3u", temperature);
    18a6:	1f 92       	push	r1
    18a8:	5f 92       	push	r5
    18aa:	9f 92       	push	r9
    18ac:	8f 92       	push	r8
    18ae:	df 92       	push	r13
    18b0:	cf 92       	push	r12
    18b2:	0e 94 3e 0d 	call	0x1a7c	; 0x1a7c <sprintf>
					LcdStr(FONT_2X, &str);
    18b6:	b6 01       	movw	r22, r12
    18b8:	82 e0       	ldi	r24, 0x02	; 2
    18ba:	0e 94 14 04 	call	0x828	; 0x828 <LcdStr>
					
					/*выводим дробную часть знач. температуры*/
					temperature = (scratchpad[n][0]&15);
    18be:	f7 01       	movw	r30, r14
    18c0:	ee 0f       	add	r30, r30
    18c2:	ff 1f       	adc	r31, r31
    18c4:	ec 56       	subi	r30, 0x6C	; 108
    18c6:	fc 4f       	sbci	r31, 0xFC	; 252
    18c8:	80 81       	ld	r24, Z
    18ca:	8f 70       	andi	r24, 0x0F	; 15
					temperature = (temperature<<1) + (temperature<<3);
    18cc:	18 2f       	mov	r17, r24
    18ce:	11 0f       	add	r17, r17
    18d0:	88 0f       	add	r24, r24
    18d2:	88 0f       	add	r24, r24
    18d4:	88 0f       	add	r24, r24
    18d6:	18 0f       	add	r17, r24
					temperature = (temperature>>4);
					
					LcdGotoXYFont(8,1);
    18d8:	61 e0       	ldi	r22, 0x01	; 1
    18da:	88 e0       	ldi	r24, 0x08	; 8
    18dc:	0e 94 0f 03 	call	0x61e	; 0x61e <LcdGotoXYFont>
					LcdStr(FONT_2X, &str);
					
					/*выводим дробную часть знач. температуры*/
					temperature = (scratchpad[n][0]&15);
					temperature = (temperature<<1) + (temperature<<3);
					temperature = (temperature>>4);
    18e0:	81 2f       	mov	r24, r17
    18e2:	82 95       	swap	r24
    18e4:	8f 70       	andi	r24, 0x0F	; 15
					
					LcdGotoXYFont(8,1);
					sprintf(str, ".%u", temperature);
    18e6:	1f 92       	push	r1
    18e8:	8f 93       	push	r24
    18ea:	bf 92       	push	r11
    18ec:	af 92       	push	r10
    18ee:	df 92       	push	r13
    18f0:	cf 92       	push	r12
    18f2:	0e 94 3e 0d 	call	0x1a7c	; 0x1a7c <sprintf>
					LcdStr(FONT_2X, &str);
    18f6:	b6 01       	movw	r22, r12
    18f8:	82 e0       	ldi	r24, 0x02	; 2
    18fa:	0e 94 14 04 	call	0x828	; 0x828 <LcdStr>
    18fe:	0f b6       	in	r0, 0x3f	; 63
    1900:	f8 94       	cli
    1902:	de bf       	out	0x3e, r29	; 62
    1904:	0f be       	out	0x3f, r0	; 63
    1906:	cd bf       	out	0x3d, r28	; 61
				//printf(".%u",  temperature);
				//sprintf(str, ".%u", temperature);
				//LcdStr(FONT_2X, &str);
				
				//send_Uart(13);
				n++;
    1908:	73 94       	inc	r7
		
		unsigned char n=0;
		#if LCD_TYPE==1
			char str[14];
			//LcdClear();
			while(n<=num_device-1)
    190a:	e7 2c       	mov	r14, r7
    190c:	f1 2c       	mov	r15, r1
    190e:	80 91 78 03 	lds	r24, 0x0378
    1912:	90 e0       	ldi	r25, 0x00	; 0
    1914:	01 97       	sbiw	r24, 0x01	; 1
    1916:	8e 15       	cp	r24, r14
    1918:	9f 05       	cpc	r25, r15
    191a:	0c f0       	brlt	.+2      	; 0x191e <Set_Temp_to_LCD+0x1c0>
    191c:	56 cf       	rjmp	.-340    	; 0x17ca <Set_Temp_to_LCD+0x6c>
    191e:	46 c0       	rjmp	.+140    	; 0x19ac <Set_Temp_to_LCD+0x24e>
					scratchpad_lcd[n][0] = tmp;
					scratchpad_lcd[n][1] = tmp>>8;
				}
				//LcdGotoXYFont(4,n+1);
				/*выводим значение целое знач. температуры*/
				temperature = (scratchpad_lcd[n][0]>>4)|((scratchpad_lcd[n][1]&7)<<4);
    1920:	87 70       	andi	r24, 0x07	; 7
    1922:	20 e1       	ldi	r18, 0x10	; 16
    1924:	82 9f       	mul	r24, r18
    1926:	c0 01       	movw	r24, r0
    1928:	11 24       	eor	r1, r1
    192a:	f7 01       	movw	r30, r14
    192c:	ee 0f       	add	r30, r30
    192e:	ff 1f       	adc	r31, r31
    1930:	21 e0       	ldi	r18, 0x01	; 1
    1932:	30 e0       	ldi	r19, 0x00	; 0
    1934:	2c 0f       	add	r18, r28
    1936:	3d 1f       	adc	r19, r29
    1938:	e2 0f       	add	r30, r18
    193a:	f3 1f       	adc	r31, r19
    193c:	50 80       	ld	r5, Z
    193e:	56 94       	lsr	r5
    1940:	56 94       	lsr	r5
    1942:	56 94       	lsr	r5
    1944:	56 94       	lsr	r5
    1946:	58 2a       	or	r5, r24
				//Извращаемся с выводом цыфр на экран :(
				if (temperature < 100)
    1948:	33 e6       	ldi	r19, 0x63	; 99
    194a:	35 15       	cp	r19, r5
    194c:	08 f0       	brcs	.+2      	; 0x1950 <Set_Temp_to_LCD+0x1f2>
    194e:	77 cf       	rjmp	.-274    	; 0x183e <Set_Temp_to_LCD+0xe0>
    1950:	23 c0       	rjmp	.+70     	; 0x1998 <Set_Temp_to_LCD+0x23a>
					}
					if (temperature>=10)
					{
						/*выводим десятки*/
						//KEY_V_BAT_ON();
						LcdBarsFontNumber(temperature/10,0);
    1952:	56 9c       	mul	r5, r6
    1954:	01 2d       	mov	r16, r1
    1956:	11 24       	eor	r1, r1
    1958:	06 95       	lsr	r16
    195a:	06 95       	lsr	r16
    195c:	06 95       	lsr	r16
    195e:	10 e0       	ldi	r17, 0x00	; 0
    1960:	60 e0       	ldi	r22, 0x00	; 0
    1962:	70 e0       	ldi	r23, 0x00	; 0
    1964:	c8 01       	movw	r24, r16
    1966:	0e 94 ef 04 	call	0x9de	; 0x9de <LcdBarsFontNumber>
						//KEY_V_BAT_OFF();
						temperature_i=temperature/10;
						/*выводим единицы*/
						LcdBarsFontNumber((temperature-(temperature_i*10)),1);
    196a:	26 ef       	ldi	r18, 0xF6	; 246
    196c:	20 03       	mulsu	r18, r16
    196e:	c0 01       	movw	r24, r0
    1970:	21 9f       	mul	r18, r17
    1972:	90 0d       	add	r25, r0
    1974:	11 24       	eor	r1, r1
    1976:	61 e0       	ldi	r22, 0x01	; 1
    1978:	70 e0       	ldi	r23, 0x00	; 0
    197a:	85 0d       	add	r24, r5
    197c:	91 1d       	adc	r25, r1
    197e:	0e 94 ef 04 	call	0x9de	; 0x9de <LcdBarsFontNumber>
    1982:	74 cf       	rjmp	.-280    	; 0x186c <Set_Temp_to_LCD+0x10e>
					
				}
				else
				{
					//если температура больше 99 градусов, рисуем ее мельче
					LcdGotoXYFont(0,1);
    1984:	61 e0       	ldi	r22, 0x01	; 1
    1986:	80 e0       	ldi	r24, 0x00	; 0
    1988:	0e 94 0f 03 	call	0x61e	; 0x61e <LcdGotoXYFont>
					if (znak_temper==0)
					{
						//если минус
						LcdFStr(FONT_2X,(unsigned char*)PSTR("-"));
    198c:	68 e4       	ldi	r22, 0x48	; 72
    198e:	74 e0       	ldi	r23, 0x04	; 4
    1990:	82 e0       	ldi	r24, 0x02	; 2
    1992:	0e 94 33 04 	call	0x866	; 0x866 <LcdFStr>
    1996:	87 cf       	rjmp	.-242    	; 0x18a6 <Set_Temp_to_LCD+0x148>
					
				}
				else
				{
					//если температура больше 99 градусов, рисуем ее мельче
					LcdGotoXYFont(0,1);
    1998:	61 e0       	ldi	r22, 0x01	; 1
    199a:	80 e0       	ldi	r24, 0x00	; 0
    199c:	0e 94 0f 03 	call	0x61e	; 0x61e <LcdGotoXYFont>
						LcdFStr(FONT_2X,(unsigned char*)PSTR("-"));
					}
					else
					{
						//если плюс
						LcdFStr(FONT_2X,(unsigned char*)PSTR("+"));
    19a0:	66 e4       	ldi	r22, 0x46	; 70
    19a2:	74 e0       	ldi	r23, 0x04	; 4
    19a4:	82 e0       	ldi	r24, 0x02	; 2
    19a6:	0e 94 33 04 	call	0x866	; 0x866 <LcdFStr>
    19aa:	7d cf       	rjmp	.-262    	; 0x18a6 <Set_Temp_to_LCD+0x148>
			}
			//LcdUpdate();
		#endif
	#endif

}
    19ac:	68 96       	adiw	r28, 0x18	; 24
    19ae:	0f b6       	in	r0, 0x3f	; 63
    19b0:	f8 94       	cli
    19b2:	de bf       	out	0x3e, r29	; 62
    19b4:	0f be       	out	0x3f, r0	; 63
    19b6:	cd bf       	out	0x3d, r28	; 61
    19b8:	df 91       	pop	r29
    19ba:	cf 91       	pop	r28
    19bc:	1f 91       	pop	r17
    19be:	0f 91       	pop	r16
    19c0:	ff 90       	pop	r15
    19c2:	ef 90       	pop	r14
    19c4:	df 90       	pop	r13
    19c6:	cf 90       	pop	r12
    19c8:	bf 90       	pop	r11
    19ca:	af 90       	pop	r10
    19cc:	9f 90       	pop	r9
    19ce:	8f 90       	pop	r8
    19d0:	7f 90       	pop	r7
    19d2:	6f 90       	pop	r6
    19d4:	5f 90       	pop	r5
    19d6:	08 95       	ret

000019d8 <__vector_16>:
	TCCR0B = (1<<CS02)|(0<<CS01)|(1<<CS00); // настраиваем делитель 1024
	
	
}
ISR( TIMER0_OVF_vect )//сдесь функция 100 раз в 1 сек
{
    19d8:	1f 92       	push	r1
    19da:	0f 92       	push	r0
    19dc:	0f b6       	in	r0, 0x3f	; 63
    19de:	0f 92       	push	r0
    19e0:	11 24       	eor	r1, r1
    19e2:	8f 93       	push	r24
	cli();
    19e4:	f8 94       	cli
	
	TCNT0 = Tic_10mS; //выставляем начальное значение TCNT0(10mS) 100 раз в секунду
    19e6:	81 eb       	ldi	r24, 0xB1	; 177
    19e8:	86 bd       	out	0x26, r24	; 38
	//send_Uart(timer0);
	//send_Uart(13);
	timer0_char_10_ms++;
    19ea:	80 91 79 03 	lds	r24, 0x0379
    19ee:	8f 5f       	subi	r24, 0xFF	; 255
    19f0:	80 93 79 03 	sts	0x0379, r24
	sei();
    19f4:	78 94       	sei
	//send_message(0);
	
}
    19f6:	8f 91       	pop	r24
    19f8:	0f 90       	pop	r0
    19fa:	0f be       	out	0x3f, r0	; 63
    19fc:	0f 90       	pop	r0
    19fe:	1f 90       	pop	r1
    1a00:	18 95       	reti

00001a02 <__udivmodhi4>:
    1a02:	aa 1b       	sub	r26, r26
    1a04:	bb 1b       	sub	r27, r27
    1a06:	51 e1       	ldi	r21, 0x11	; 17
    1a08:	07 c0       	rjmp	.+14     	; 0x1a18 <__udivmodhi4_ep>

00001a0a <__udivmodhi4_loop>:
    1a0a:	aa 1f       	adc	r26, r26
    1a0c:	bb 1f       	adc	r27, r27
    1a0e:	a6 17       	cp	r26, r22
    1a10:	b7 07       	cpc	r27, r23
    1a12:	10 f0       	brcs	.+4      	; 0x1a18 <__udivmodhi4_ep>
    1a14:	a6 1b       	sub	r26, r22
    1a16:	b7 0b       	sbc	r27, r23

00001a18 <__udivmodhi4_ep>:
    1a18:	88 1f       	adc	r24, r24
    1a1a:	99 1f       	adc	r25, r25
    1a1c:	5a 95       	dec	r21
    1a1e:	a9 f7       	brne	.-22     	; 0x1a0a <__udivmodhi4_loop>
    1a20:	80 95       	com	r24
    1a22:	90 95       	com	r25
    1a24:	bc 01       	movw	r22, r24
    1a26:	cd 01       	movw	r24, r26
    1a28:	08 95       	ret

00001a2a <__divmodhi4>:
    1a2a:	97 fb       	bst	r25, 7
    1a2c:	07 2e       	mov	r0, r23
    1a2e:	16 f4       	brtc	.+4      	; 0x1a34 <__divmodhi4+0xa>
    1a30:	00 94       	com	r0
    1a32:	07 d0       	rcall	.+14     	; 0x1a42 <__divmodhi4_neg1>
    1a34:	77 fd       	sbrc	r23, 7
    1a36:	09 d0       	rcall	.+18     	; 0x1a4a <__divmodhi4_neg2>
    1a38:	0e 94 01 0d 	call	0x1a02	; 0x1a02 <__udivmodhi4>
    1a3c:	07 fc       	sbrc	r0, 7
    1a3e:	05 d0       	rcall	.+10     	; 0x1a4a <__divmodhi4_neg2>
    1a40:	3e f4       	brtc	.+14     	; 0x1a50 <__divmodhi4_exit>

00001a42 <__divmodhi4_neg1>:
    1a42:	90 95       	com	r25
    1a44:	81 95       	neg	r24
    1a46:	9f 4f       	sbci	r25, 0xFF	; 255
    1a48:	08 95       	ret

00001a4a <__divmodhi4_neg2>:
    1a4a:	70 95       	com	r23
    1a4c:	61 95       	neg	r22
    1a4e:	7f 4f       	sbci	r23, 0xFF	; 255

00001a50 <__divmodhi4_exit>:
    1a50:	08 95       	ret

00001a52 <__tablejump2__>:
    1a52:	ee 0f       	add	r30, r30
    1a54:	ff 1f       	adc	r31, r31
    1a56:	05 90       	lpm	r0, Z+
    1a58:	f4 91       	lpm	r31, Z
    1a5a:	e0 2d       	mov	r30, r0
    1a5c:	09 94       	ijmp

00001a5e <__umulhisi3>:
    1a5e:	a2 9f       	mul	r26, r18
    1a60:	b0 01       	movw	r22, r0
    1a62:	b3 9f       	mul	r27, r19
    1a64:	c0 01       	movw	r24, r0
    1a66:	a3 9f       	mul	r26, r19
    1a68:	70 0d       	add	r23, r0
    1a6a:	81 1d       	adc	r24, r1
    1a6c:	11 24       	eor	r1, r1
    1a6e:	91 1d       	adc	r25, r1
    1a70:	b2 9f       	mul	r27, r18
    1a72:	70 0d       	add	r23, r0
    1a74:	81 1d       	adc	r24, r1
    1a76:	11 24       	eor	r1, r1
    1a78:	91 1d       	adc	r25, r1
    1a7a:	08 95       	ret

00001a7c <sprintf>:
    1a7c:	ae e0       	ldi	r26, 0x0E	; 14
    1a7e:	b0 e0       	ldi	r27, 0x00	; 0
    1a80:	e4 e4       	ldi	r30, 0x44	; 68
    1a82:	fd e0       	ldi	r31, 0x0D	; 13
    1a84:	0c 94 ed 0f 	jmp	0x1fda	; 0x1fda <__prologue_saves__+0x1c>
    1a88:	0d 89       	ldd	r16, Y+21	; 0x15
    1a8a:	1e 89       	ldd	r17, Y+22	; 0x16
    1a8c:	86 e0       	ldi	r24, 0x06	; 6
    1a8e:	8c 83       	std	Y+4, r24	; 0x04
    1a90:	1a 83       	std	Y+2, r17	; 0x02
    1a92:	09 83       	std	Y+1, r16	; 0x01
    1a94:	8f ef       	ldi	r24, 0xFF	; 255
    1a96:	9f e7       	ldi	r25, 0x7F	; 127
    1a98:	9e 83       	std	Y+6, r25	; 0x06
    1a9a:	8d 83       	std	Y+5, r24	; 0x05
    1a9c:	ae 01       	movw	r20, r28
    1a9e:	47 5e       	subi	r20, 0xE7	; 231
    1aa0:	5f 4f       	sbci	r21, 0xFF	; 255
    1aa2:	6f 89       	ldd	r22, Y+23	; 0x17
    1aa4:	78 8d       	ldd	r23, Y+24	; 0x18
    1aa6:	ce 01       	movw	r24, r28
    1aa8:	01 96       	adiw	r24, 0x01	; 1
    1aaa:	0e 94 61 0d 	call	0x1ac2	; 0x1ac2 <vfprintf>
    1aae:	2f 81       	ldd	r18, Y+7	; 0x07
    1ab0:	38 85       	ldd	r19, Y+8	; 0x08
    1ab2:	f8 01       	movw	r30, r16
    1ab4:	e2 0f       	add	r30, r18
    1ab6:	f3 1f       	adc	r31, r19
    1ab8:	10 82       	st	Z, r1
    1aba:	2e 96       	adiw	r28, 0x0e	; 14
    1abc:	e4 e0       	ldi	r30, 0x04	; 4
    1abe:	0c 94 09 10 	jmp	0x2012	; 0x2012 <__epilogue_restores__+0x1c>

00001ac2 <vfprintf>:
    1ac2:	ac e0       	ldi	r26, 0x0C	; 12
    1ac4:	b0 e0       	ldi	r27, 0x00	; 0
    1ac6:	e7 e6       	ldi	r30, 0x67	; 103
    1ac8:	fd e0       	ldi	r31, 0x0D	; 13
    1aca:	0c 94 df 0f 	jmp	0x1fbe	; 0x1fbe <__prologue_saves__>
    1ace:	7c 01       	movw	r14, r24
    1ad0:	6b 01       	movw	r12, r22
    1ad2:	8a 01       	movw	r16, r20
    1ad4:	fc 01       	movw	r30, r24
    1ad6:	17 82       	std	Z+7, r1	; 0x07
    1ad8:	16 82       	std	Z+6, r1	; 0x06
    1ada:	83 81       	ldd	r24, Z+3	; 0x03
    1adc:	81 ff       	sbrs	r24, 1
    1ade:	bd c1       	rjmp	.+890    	; 0x1e5a <vfprintf+0x398>
    1ae0:	ce 01       	movw	r24, r28
    1ae2:	01 96       	adiw	r24, 0x01	; 1
    1ae4:	4c 01       	movw	r8, r24
    1ae6:	f7 01       	movw	r30, r14
    1ae8:	93 81       	ldd	r25, Z+3	; 0x03
    1aea:	f6 01       	movw	r30, r12
    1aec:	93 fd       	sbrc	r25, 3
    1aee:	85 91       	lpm	r24, Z+
    1af0:	93 ff       	sbrs	r25, 3
    1af2:	81 91       	ld	r24, Z+
    1af4:	6f 01       	movw	r12, r30
    1af6:	88 23       	and	r24, r24
    1af8:	09 f4       	brne	.+2      	; 0x1afc <vfprintf+0x3a>
    1afa:	ab c1       	rjmp	.+854    	; 0x1e52 <vfprintf+0x390>
    1afc:	85 32       	cpi	r24, 0x25	; 37
    1afe:	39 f4       	brne	.+14     	; 0x1b0e <vfprintf+0x4c>
    1b00:	93 fd       	sbrc	r25, 3
    1b02:	85 91       	lpm	r24, Z+
    1b04:	93 ff       	sbrs	r25, 3
    1b06:	81 91       	ld	r24, Z+
    1b08:	6f 01       	movw	r12, r30
    1b0a:	85 32       	cpi	r24, 0x25	; 37
    1b0c:	29 f4       	brne	.+10     	; 0x1b18 <vfprintf+0x56>
    1b0e:	b7 01       	movw	r22, r14
    1b10:	90 e0       	ldi	r25, 0x00	; 0
    1b12:	0e 94 49 0f 	call	0x1e92	; 0x1e92 <fputc>
    1b16:	e7 cf       	rjmp	.-50     	; 0x1ae6 <vfprintf+0x24>
    1b18:	51 2c       	mov	r5, r1
    1b1a:	31 2c       	mov	r3, r1
    1b1c:	20 e0       	ldi	r18, 0x00	; 0
    1b1e:	20 32       	cpi	r18, 0x20	; 32
    1b20:	a0 f4       	brcc	.+40     	; 0x1b4a <vfprintf+0x88>
    1b22:	8b 32       	cpi	r24, 0x2B	; 43
    1b24:	69 f0       	breq	.+26     	; 0x1b40 <vfprintf+0x7e>
    1b26:	30 f4       	brcc	.+12     	; 0x1b34 <vfprintf+0x72>
    1b28:	80 32       	cpi	r24, 0x20	; 32
    1b2a:	59 f0       	breq	.+22     	; 0x1b42 <vfprintf+0x80>
    1b2c:	83 32       	cpi	r24, 0x23	; 35
    1b2e:	69 f4       	brne	.+26     	; 0x1b4a <vfprintf+0x88>
    1b30:	20 61       	ori	r18, 0x10	; 16
    1b32:	2c c0       	rjmp	.+88     	; 0x1b8c <vfprintf+0xca>
    1b34:	8d 32       	cpi	r24, 0x2D	; 45
    1b36:	39 f0       	breq	.+14     	; 0x1b46 <vfprintf+0x84>
    1b38:	80 33       	cpi	r24, 0x30	; 48
    1b3a:	39 f4       	brne	.+14     	; 0x1b4a <vfprintf+0x88>
    1b3c:	21 60       	ori	r18, 0x01	; 1
    1b3e:	26 c0       	rjmp	.+76     	; 0x1b8c <vfprintf+0xca>
    1b40:	22 60       	ori	r18, 0x02	; 2
    1b42:	24 60       	ori	r18, 0x04	; 4
    1b44:	23 c0       	rjmp	.+70     	; 0x1b8c <vfprintf+0xca>
    1b46:	28 60       	ori	r18, 0x08	; 8
    1b48:	21 c0       	rjmp	.+66     	; 0x1b8c <vfprintf+0xca>
    1b4a:	27 fd       	sbrc	r18, 7
    1b4c:	27 c0       	rjmp	.+78     	; 0x1b9c <vfprintf+0xda>
    1b4e:	30 ed       	ldi	r19, 0xD0	; 208
    1b50:	38 0f       	add	r19, r24
    1b52:	3a 30       	cpi	r19, 0x0A	; 10
    1b54:	78 f4       	brcc	.+30     	; 0x1b74 <vfprintf+0xb2>
    1b56:	26 ff       	sbrs	r18, 6
    1b58:	06 c0       	rjmp	.+12     	; 0x1b66 <vfprintf+0xa4>
    1b5a:	fa e0       	ldi	r31, 0x0A	; 10
    1b5c:	5f 9e       	mul	r5, r31
    1b5e:	30 0d       	add	r19, r0
    1b60:	11 24       	eor	r1, r1
    1b62:	53 2e       	mov	r5, r19
    1b64:	13 c0       	rjmp	.+38     	; 0x1b8c <vfprintf+0xca>
    1b66:	8a e0       	ldi	r24, 0x0A	; 10
    1b68:	38 9e       	mul	r3, r24
    1b6a:	30 0d       	add	r19, r0
    1b6c:	11 24       	eor	r1, r1
    1b6e:	33 2e       	mov	r3, r19
    1b70:	20 62       	ori	r18, 0x20	; 32
    1b72:	0c c0       	rjmp	.+24     	; 0x1b8c <vfprintf+0xca>
    1b74:	8e 32       	cpi	r24, 0x2E	; 46
    1b76:	21 f4       	brne	.+8      	; 0x1b80 <vfprintf+0xbe>
    1b78:	26 fd       	sbrc	r18, 6
    1b7a:	6b c1       	rjmp	.+726    	; 0x1e52 <vfprintf+0x390>
    1b7c:	20 64       	ori	r18, 0x40	; 64
    1b7e:	06 c0       	rjmp	.+12     	; 0x1b8c <vfprintf+0xca>
    1b80:	8c 36       	cpi	r24, 0x6C	; 108
    1b82:	11 f4       	brne	.+4      	; 0x1b88 <vfprintf+0xc6>
    1b84:	20 68       	ori	r18, 0x80	; 128
    1b86:	02 c0       	rjmp	.+4      	; 0x1b8c <vfprintf+0xca>
    1b88:	88 36       	cpi	r24, 0x68	; 104
    1b8a:	41 f4       	brne	.+16     	; 0x1b9c <vfprintf+0xda>
    1b8c:	f6 01       	movw	r30, r12
    1b8e:	93 fd       	sbrc	r25, 3
    1b90:	85 91       	lpm	r24, Z+
    1b92:	93 ff       	sbrs	r25, 3
    1b94:	81 91       	ld	r24, Z+
    1b96:	6f 01       	movw	r12, r30
    1b98:	81 11       	cpse	r24, r1
    1b9a:	c1 cf       	rjmp	.-126    	; 0x1b1e <vfprintf+0x5c>
    1b9c:	98 2f       	mov	r25, r24
    1b9e:	9f 7d       	andi	r25, 0xDF	; 223
    1ba0:	95 54       	subi	r25, 0x45	; 69
    1ba2:	93 30       	cpi	r25, 0x03	; 3
    1ba4:	28 f4       	brcc	.+10     	; 0x1bb0 <vfprintf+0xee>
    1ba6:	0c 5f       	subi	r16, 0xFC	; 252
    1ba8:	1f 4f       	sbci	r17, 0xFF	; 255
    1baa:	ff e3       	ldi	r31, 0x3F	; 63
    1bac:	f9 83       	std	Y+1, r31	; 0x01
    1bae:	0d c0       	rjmp	.+26     	; 0x1bca <vfprintf+0x108>
    1bb0:	83 36       	cpi	r24, 0x63	; 99
    1bb2:	31 f0       	breq	.+12     	; 0x1bc0 <vfprintf+0xfe>
    1bb4:	83 37       	cpi	r24, 0x73	; 115
    1bb6:	71 f0       	breq	.+28     	; 0x1bd4 <vfprintf+0x112>
    1bb8:	83 35       	cpi	r24, 0x53	; 83
    1bba:	09 f0       	breq	.+2      	; 0x1bbe <vfprintf+0xfc>
    1bbc:	5b c0       	rjmp	.+182    	; 0x1c74 <vfprintf+0x1b2>
    1bbe:	22 c0       	rjmp	.+68     	; 0x1c04 <vfprintf+0x142>
    1bc0:	f8 01       	movw	r30, r16
    1bc2:	80 81       	ld	r24, Z
    1bc4:	89 83       	std	Y+1, r24	; 0x01
    1bc6:	0e 5f       	subi	r16, 0xFE	; 254
    1bc8:	1f 4f       	sbci	r17, 0xFF	; 255
    1bca:	44 24       	eor	r4, r4
    1bcc:	43 94       	inc	r4
    1bce:	51 2c       	mov	r5, r1
    1bd0:	54 01       	movw	r10, r8
    1bd2:	15 c0       	rjmp	.+42     	; 0x1bfe <vfprintf+0x13c>
    1bd4:	38 01       	movw	r6, r16
    1bd6:	f2 e0       	ldi	r31, 0x02	; 2
    1bd8:	6f 0e       	add	r6, r31
    1bda:	71 1c       	adc	r7, r1
    1bdc:	f8 01       	movw	r30, r16
    1bde:	a0 80       	ld	r10, Z
    1be0:	b1 80       	ldd	r11, Z+1	; 0x01
    1be2:	26 ff       	sbrs	r18, 6
    1be4:	03 c0       	rjmp	.+6      	; 0x1bec <vfprintf+0x12a>
    1be6:	65 2d       	mov	r22, r5
    1be8:	70 e0       	ldi	r23, 0x00	; 0
    1bea:	02 c0       	rjmp	.+4      	; 0x1bf0 <vfprintf+0x12e>
    1bec:	6f ef       	ldi	r22, 0xFF	; 255
    1bee:	7f ef       	ldi	r23, 0xFF	; 255
    1bf0:	c5 01       	movw	r24, r10
    1bf2:	2c 87       	std	Y+12, r18	; 0x0c
    1bf4:	0e 94 3e 0f 	call	0x1e7c	; 0x1e7c <strnlen>
    1bf8:	2c 01       	movw	r4, r24
    1bfa:	83 01       	movw	r16, r6
    1bfc:	2c 85       	ldd	r18, Y+12	; 0x0c
    1bfe:	2f 77       	andi	r18, 0x7F	; 127
    1c00:	22 2e       	mov	r2, r18
    1c02:	17 c0       	rjmp	.+46     	; 0x1c32 <vfprintf+0x170>
    1c04:	38 01       	movw	r6, r16
    1c06:	f2 e0       	ldi	r31, 0x02	; 2
    1c08:	6f 0e       	add	r6, r31
    1c0a:	71 1c       	adc	r7, r1
    1c0c:	f8 01       	movw	r30, r16
    1c0e:	a0 80       	ld	r10, Z
    1c10:	b1 80       	ldd	r11, Z+1	; 0x01
    1c12:	26 ff       	sbrs	r18, 6
    1c14:	03 c0       	rjmp	.+6      	; 0x1c1c <vfprintf+0x15a>
    1c16:	65 2d       	mov	r22, r5
    1c18:	70 e0       	ldi	r23, 0x00	; 0
    1c1a:	02 c0       	rjmp	.+4      	; 0x1c20 <vfprintf+0x15e>
    1c1c:	6f ef       	ldi	r22, 0xFF	; 255
    1c1e:	7f ef       	ldi	r23, 0xFF	; 255
    1c20:	c5 01       	movw	r24, r10
    1c22:	2c 87       	std	Y+12, r18	; 0x0c
    1c24:	0e 94 33 0f 	call	0x1e66	; 0x1e66 <strnlen_P>
    1c28:	2c 01       	movw	r4, r24
    1c2a:	2c 85       	ldd	r18, Y+12	; 0x0c
    1c2c:	20 68       	ori	r18, 0x80	; 128
    1c2e:	22 2e       	mov	r2, r18
    1c30:	83 01       	movw	r16, r6
    1c32:	23 fc       	sbrc	r2, 3
    1c34:	1b c0       	rjmp	.+54     	; 0x1c6c <vfprintf+0x1aa>
    1c36:	83 2d       	mov	r24, r3
    1c38:	90 e0       	ldi	r25, 0x00	; 0
    1c3a:	48 16       	cp	r4, r24
    1c3c:	59 06       	cpc	r5, r25
    1c3e:	b0 f4       	brcc	.+44     	; 0x1c6c <vfprintf+0x1aa>
    1c40:	b7 01       	movw	r22, r14
    1c42:	80 e2       	ldi	r24, 0x20	; 32
    1c44:	90 e0       	ldi	r25, 0x00	; 0
    1c46:	0e 94 49 0f 	call	0x1e92	; 0x1e92 <fputc>
    1c4a:	3a 94       	dec	r3
    1c4c:	f4 cf       	rjmp	.-24     	; 0x1c36 <vfprintf+0x174>
    1c4e:	f5 01       	movw	r30, r10
    1c50:	27 fc       	sbrc	r2, 7
    1c52:	85 91       	lpm	r24, Z+
    1c54:	27 fe       	sbrs	r2, 7
    1c56:	81 91       	ld	r24, Z+
    1c58:	5f 01       	movw	r10, r30
    1c5a:	b7 01       	movw	r22, r14
    1c5c:	90 e0       	ldi	r25, 0x00	; 0
    1c5e:	0e 94 49 0f 	call	0x1e92	; 0x1e92 <fputc>
    1c62:	31 10       	cpse	r3, r1
    1c64:	3a 94       	dec	r3
    1c66:	f1 e0       	ldi	r31, 0x01	; 1
    1c68:	4f 1a       	sub	r4, r31
    1c6a:	51 08       	sbc	r5, r1
    1c6c:	41 14       	cp	r4, r1
    1c6e:	51 04       	cpc	r5, r1
    1c70:	71 f7       	brne	.-36     	; 0x1c4e <vfprintf+0x18c>
    1c72:	e5 c0       	rjmp	.+458    	; 0x1e3e <vfprintf+0x37c>
    1c74:	84 36       	cpi	r24, 0x64	; 100
    1c76:	11 f0       	breq	.+4      	; 0x1c7c <vfprintf+0x1ba>
    1c78:	89 36       	cpi	r24, 0x69	; 105
    1c7a:	39 f5       	brne	.+78     	; 0x1cca <vfprintf+0x208>
    1c7c:	f8 01       	movw	r30, r16
    1c7e:	27 ff       	sbrs	r18, 7
    1c80:	07 c0       	rjmp	.+14     	; 0x1c90 <vfprintf+0x1ce>
    1c82:	60 81       	ld	r22, Z
    1c84:	71 81       	ldd	r23, Z+1	; 0x01
    1c86:	82 81       	ldd	r24, Z+2	; 0x02
    1c88:	93 81       	ldd	r25, Z+3	; 0x03
    1c8a:	0c 5f       	subi	r16, 0xFC	; 252
    1c8c:	1f 4f       	sbci	r17, 0xFF	; 255
    1c8e:	08 c0       	rjmp	.+16     	; 0x1ca0 <vfprintf+0x1de>
    1c90:	60 81       	ld	r22, Z
    1c92:	71 81       	ldd	r23, Z+1	; 0x01
    1c94:	07 2e       	mov	r0, r23
    1c96:	00 0c       	add	r0, r0
    1c98:	88 0b       	sbc	r24, r24
    1c9a:	99 0b       	sbc	r25, r25
    1c9c:	0e 5f       	subi	r16, 0xFE	; 254
    1c9e:	1f 4f       	sbci	r17, 0xFF	; 255
    1ca0:	2f 76       	andi	r18, 0x6F	; 111
    1ca2:	72 2e       	mov	r7, r18
    1ca4:	97 ff       	sbrs	r25, 7
    1ca6:	09 c0       	rjmp	.+18     	; 0x1cba <vfprintf+0x1f8>
    1ca8:	90 95       	com	r25
    1caa:	80 95       	com	r24
    1cac:	70 95       	com	r23
    1cae:	61 95       	neg	r22
    1cb0:	7f 4f       	sbci	r23, 0xFF	; 255
    1cb2:	8f 4f       	sbci	r24, 0xFF	; 255
    1cb4:	9f 4f       	sbci	r25, 0xFF	; 255
    1cb6:	20 68       	ori	r18, 0x80	; 128
    1cb8:	72 2e       	mov	r7, r18
    1cba:	2a e0       	ldi	r18, 0x0A	; 10
    1cbc:	30 e0       	ldi	r19, 0x00	; 0
    1cbe:	a4 01       	movw	r20, r8
    1cc0:	0e 94 81 0f 	call	0x1f02	; 0x1f02 <__ultoa_invert>
    1cc4:	a8 2e       	mov	r10, r24
    1cc6:	a8 18       	sub	r10, r8
    1cc8:	44 c0       	rjmp	.+136    	; 0x1d52 <vfprintf+0x290>
    1cca:	85 37       	cpi	r24, 0x75	; 117
    1ccc:	29 f4       	brne	.+10     	; 0x1cd8 <vfprintf+0x216>
    1cce:	2f 7e       	andi	r18, 0xEF	; 239
    1cd0:	b2 2e       	mov	r11, r18
    1cd2:	2a e0       	ldi	r18, 0x0A	; 10
    1cd4:	30 e0       	ldi	r19, 0x00	; 0
    1cd6:	25 c0       	rjmp	.+74     	; 0x1d22 <vfprintf+0x260>
    1cd8:	f2 2f       	mov	r31, r18
    1cda:	f9 7f       	andi	r31, 0xF9	; 249
    1cdc:	bf 2e       	mov	r11, r31
    1cde:	8f 36       	cpi	r24, 0x6F	; 111
    1ce0:	c1 f0       	breq	.+48     	; 0x1d12 <vfprintf+0x250>
    1ce2:	18 f4       	brcc	.+6      	; 0x1cea <vfprintf+0x228>
    1ce4:	88 35       	cpi	r24, 0x58	; 88
    1ce6:	79 f0       	breq	.+30     	; 0x1d06 <vfprintf+0x244>
    1ce8:	b4 c0       	rjmp	.+360    	; 0x1e52 <vfprintf+0x390>
    1cea:	80 37       	cpi	r24, 0x70	; 112
    1cec:	19 f0       	breq	.+6      	; 0x1cf4 <vfprintf+0x232>
    1cee:	88 37       	cpi	r24, 0x78	; 120
    1cf0:	21 f0       	breq	.+8      	; 0x1cfa <vfprintf+0x238>
    1cf2:	af c0       	rjmp	.+350    	; 0x1e52 <vfprintf+0x390>
    1cf4:	2f 2f       	mov	r18, r31
    1cf6:	20 61       	ori	r18, 0x10	; 16
    1cf8:	b2 2e       	mov	r11, r18
    1cfa:	b4 fe       	sbrs	r11, 4
    1cfc:	0d c0       	rjmp	.+26     	; 0x1d18 <vfprintf+0x256>
    1cfe:	8b 2d       	mov	r24, r11
    1d00:	84 60       	ori	r24, 0x04	; 4
    1d02:	b8 2e       	mov	r11, r24
    1d04:	09 c0       	rjmp	.+18     	; 0x1d18 <vfprintf+0x256>
    1d06:	24 ff       	sbrs	r18, 4
    1d08:	0a c0       	rjmp	.+20     	; 0x1d1e <vfprintf+0x25c>
    1d0a:	9f 2f       	mov	r25, r31
    1d0c:	96 60       	ori	r25, 0x06	; 6
    1d0e:	b9 2e       	mov	r11, r25
    1d10:	06 c0       	rjmp	.+12     	; 0x1d1e <vfprintf+0x25c>
    1d12:	28 e0       	ldi	r18, 0x08	; 8
    1d14:	30 e0       	ldi	r19, 0x00	; 0
    1d16:	05 c0       	rjmp	.+10     	; 0x1d22 <vfprintf+0x260>
    1d18:	20 e1       	ldi	r18, 0x10	; 16
    1d1a:	30 e0       	ldi	r19, 0x00	; 0
    1d1c:	02 c0       	rjmp	.+4      	; 0x1d22 <vfprintf+0x260>
    1d1e:	20 e1       	ldi	r18, 0x10	; 16
    1d20:	32 e0       	ldi	r19, 0x02	; 2
    1d22:	f8 01       	movw	r30, r16
    1d24:	b7 fe       	sbrs	r11, 7
    1d26:	07 c0       	rjmp	.+14     	; 0x1d36 <vfprintf+0x274>
    1d28:	60 81       	ld	r22, Z
    1d2a:	71 81       	ldd	r23, Z+1	; 0x01
    1d2c:	82 81       	ldd	r24, Z+2	; 0x02
    1d2e:	93 81       	ldd	r25, Z+3	; 0x03
    1d30:	0c 5f       	subi	r16, 0xFC	; 252
    1d32:	1f 4f       	sbci	r17, 0xFF	; 255
    1d34:	06 c0       	rjmp	.+12     	; 0x1d42 <vfprintf+0x280>
    1d36:	60 81       	ld	r22, Z
    1d38:	71 81       	ldd	r23, Z+1	; 0x01
    1d3a:	80 e0       	ldi	r24, 0x00	; 0
    1d3c:	90 e0       	ldi	r25, 0x00	; 0
    1d3e:	0e 5f       	subi	r16, 0xFE	; 254
    1d40:	1f 4f       	sbci	r17, 0xFF	; 255
    1d42:	a4 01       	movw	r20, r8
    1d44:	0e 94 81 0f 	call	0x1f02	; 0x1f02 <__ultoa_invert>
    1d48:	a8 2e       	mov	r10, r24
    1d4a:	a8 18       	sub	r10, r8
    1d4c:	fb 2d       	mov	r31, r11
    1d4e:	ff 77       	andi	r31, 0x7F	; 127
    1d50:	7f 2e       	mov	r7, r31
    1d52:	76 fe       	sbrs	r7, 6
    1d54:	0b c0       	rjmp	.+22     	; 0x1d6c <vfprintf+0x2aa>
    1d56:	37 2d       	mov	r19, r7
    1d58:	3e 7f       	andi	r19, 0xFE	; 254
    1d5a:	a5 14       	cp	r10, r5
    1d5c:	50 f4       	brcc	.+20     	; 0x1d72 <vfprintf+0x2b0>
    1d5e:	74 fe       	sbrs	r7, 4
    1d60:	0a c0       	rjmp	.+20     	; 0x1d76 <vfprintf+0x2b4>
    1d62:	72 fc       	sbrc	r7, 2
    1d64:	08 c0       	rjmp	.+16     	; 0x1d76 <vfprintf+0x2b4>
    1d66:	37 2d       	mov	r19, r7
    1d68:	3e 7e       	andi	r19, 0xEE	; 238
    1d6a:	05 c0       	rjmp	.+10     	; 0x1d76 <vfprintf+0x2b4>
    1d6c:	ba 2c       	mov	r11, r10
    1d6e:	37 2d       	mov	r19, r7
    1d70:	03 c0       	rjmp	.+6      	; 0x1d78 <vfprintf+0x2b6>
    1d72:	ba 2c       	mov	r11, r10
    1d74:	01 c0       	rjmp	.+2      	; 0x1d78 <vfprintf+0x2b6>
    1d76:	b5 2c       	mov	r11, r5
    1d78:	34 ff       	sbrs	r19, 4
    1d7a:	0d c0       	rjmp	.+26     	; 0x1d96 <vfprintf+0x2d4>
    1d7c:	fe 01       	movw	r30, r28
    1d7e:	ea 0d       	add	r30, r10
    1d80:	f1 1d       	adc	r31, r1
    1d82:	80 81       	ld	r24, Z
    1d84:	80 33       	cpi	r24, 0x30	; 48
    1d86:	11 f4       	brne	.+4      	; 0x1d8c <vfprintf+0x2ca>
    1d88:	39 7e       	andi	r19, 0xE9	; 233
    1d8a:	09 c0       	rjmp	.+18     	; 0x1d9e <vfprintf+0x2dc>
    1d8c:	32 ff       	sbrs	r19, 2
    1d8e:	06 c0       	rjmp	.+12     	; 0x1d9c <vfprintf+0x2da>
    1d90:	b3 94       	inc	r11
    1d92:	b3 94       	inc	r11
    1d94:	04 c0       	rjmp	.+8      	; 0x1d9e <vfprintf+0x2dc>
    1d96:	83 2f       	mov	r24, r19
    1d98:	86 78       	andi	r24, 0x86	; 134
    1d9a:	09 f0       	breq	.+2      	; 0x1d9e <vfprintf+0x2dc>
    1d9c:	b3 94       	inc	r11
    1d9e:	33 fd       	sbrc	r19, 3
    1da0:	13 c0       	rjmp	.+38     	; 0x1dc8 <vfprintf+0x306>
    1da2:	30 ff       	sbrs	r19, 0
    1da4:	06 c0       	rjmp	.+12     	; 0x1db2 <vfprintf+0x2f0>
    1da6:	5a 2c       	mov	r5, r10
    1da8:	b3 14       	cp	r11, r3
    1daa:	18 f4       	brcc	.+6      	; 0x1db2 <vfprintf+0x2f0>
    1dac:	53 0c       	add	r5, r3
    1dae:	5b 18       	sub	r5, r11
    1db0:	b3 2c       	mov	r11, r3
    1db2:	b3 14       	cp	r11, r3
    1db4:	68 f4       	brcc	.+26     	; 0x1dd0 <vfprintf+0x30e>
    1db6:	b7 01       	movw	r22, r14
    1db8:	80 e2       	ldi	r24, 0x20	; 32
    1dba:	90 e0       	ldi	r25, 0x00	; 0
    1dbc:	3c 87       	std	Y+12, r19	; 0x0c
    1dbe:	0e 94 49 0f 	call	0x1e92	; 0x1e92 <fputc>
    1dc2:	b3 94       	inc	r11
    1dc4:	3c 85       	ldd	r19, Y+12	; 0x0c
    1dc6:	f5 cf       	rjmp	.-22     	; 0x1db2 <vfprintf+0x2f0>
    1dc8:	b3 14       	cp	r11, r3
    1dca:	10 f4       	brcc	.+4      	; 0x1dd0 <vfprintf+0x30e>
    1dcc:	3b 18       	sub	r3, r11
    1dce:	01 c0       	rjmp	.+2      	; 0x1dd2 <vfprintf+0x310>
    1dd0:	31 2c       	mov	r3, r1
    1dd2:	34 ff       	sbrs	r19, 4
    1dd4:	12 c0       	rjmp	.+36     	; 0x1dfa <vfprintf+0x338>
    1dd6:	b7 01       	movw	r22, r14
    1dd8:	80 e3       	ldi	r24, 0x30	; 48
    1dda:	90 e0       	ldi	r25, 0x00	; 0
    1ddc:	3c 87       	std	Y+12, r19	; 0x0c
    1dde:	0e 94 49 0f 	call	0x1e92	; 0x1e92 <fputc>
    1de2:	3c 85       	ldd	r19, Y+12	; 0x0c
    1de4:	32 ff       	sbrs	r19, 2
    1de6:	17 c0       	rjmp	.+46     	; 0x1e16 <vfprintf+0x354>
    1de8:	31 fd       	sbrc	r19, 1
    1dea:	03 c0       	rjmp	.+6      	; 0x1df2 <vfprintf+0x330>
    1dec:	88 e7       	ldi	r24, 0x78	; 120
    1dee:	90 e0       	ldi	r25, 0x00	; 0
    1df0:	02 c0       	rjmp	.+4      	; 0x1df6 <vfprintf+0x334>
    1df2:	88 e5       	ldi	r24, 0x58	; 88
    1df4:	90 e0       	ldi	r25, 0x00	; 0
    1df6:	b7 01       	movw	r22, r14
    1df8:	0c c0       	rjmp	.+24     	; 0x1e12 <vfprintf+0x350>
    1dfa:	83 2f       	mov	r24, r19
    1dfc:	86 78       	andi	r24, 0x86	; 134
    1dfe:	59 f0       	breq	.+22     	; 0x1e16 <vfprintf+0x354>
    1e00:	31 ff       	sbrs	r19, 1
    1e02:	02 c0       	rjmp	.+4      	; 0x1e08 <vfprintf+0x346>
    1e04:	8b e2       	ldi	r24, 0x2B	; 43
    1e06:	01 c0       	rjmp	.+2      	; 0x1e0a <vfprintf+0x348>
    1e08:	80 e2       	ldi	r24, 0x20	; 32
    1e0a:	37 fd       	sbrc	r19, 7
    1e0c:	8d e2       	ldi	r24, 0x2D	; 45
    1e0e:	b7 01       	movw	r22, r14
    1e10:	90 e0       	ldi	r25, 0x00	; 0
    1e12:	0e 94 49 0f 	call	0x1e92	; 0x1e92 <fputc>
    1e16:	a5 14       	cp	r10, r5
    1e18:	38 f4       	brcc	.+14     	; 0x1e28 <vfprintf+0x366>
    1e1a:	b7 01       	movw	r22, r14
    1e1c:	80 e3       	ldi	r24, 0x30	; 48
    1e1e:	90 e0       	ldi	r25, 0x00	; 0
    1e20:	0e 94 49 0f 	call	0x1e92	; 0x1e92 <fputc>
    1e24:	5a 94       	dec	r5
    1e26:	f7 cf       	rjmp	.-18     	; 0x1e16 <vfprintf+0x354>
    1e28:	aa 94       	dec	r10
    1e2a:	f4 01       	movw	r30, r8
    1e2c:	ea 0d       	add	r30, r10
    1e2e:	f1 1d       	adc	r31, r1
    1e30:	80 81       	ld	r24, Z
    1e32:	b7 01       	movw	r22, r14
    1e34:	90 e0       	ldi	r25, 0x00	; 0
    1e36:	0e 94 49 0f 	call	0x1e92	; 0x1e92 <fputc>
    1e3a:	a1 10       	cpse	r10, r1
    1e3c:	f5 cf       	rjmp	.-22     	; 0x1e28 <vfprintf+0x366>
    1e3e:	33 20       	and	r3, r3
    1e40:	09 f4       	brne	.+2      	; 0x1e44 <vfprintf+0x382>
    1e42:	51 ce       	rjmp	.-862    	; 0x1ae6 <vfprintf+0x24>
    1e44:	b7 01       	movw	r22, r14
    1e46:	80 e2       	ldi	r24, 0x20	; 32
    1e48:	90 e0       	ldi	r25, 0x00	; 0
    1e4a:	0e 94 49 0f 	call	0x1e92	; 0x1e92 <fputc>
    1e4e:	3a 94       	dec	r3
    1e50:	f6 cf       	rjmp	.-20     	; 0x1e3e <vfprintf+0x37c>
    1e52:	f7 01       	movw	r30, r14
    1e54:	86 81       	ldd	r24, Z+6	; 0x06
    1e56:	97 81       	ldd	r25, Z+7	; 0x07
    1e58:	02 c0       	rjmp	.+4      	; 0x1e5e <vfprintf+0x39c>
    1e5a:	8f ef       	ldi	r24, 0xFF	; 255
    1e5c:	9f ef       	ldi	r25, 0xFF	; 255
    1e5e:	2c 96       	adiw	r28, 0x0c	; 12
    1e60:	e2 e1       	ldi	r30, 0x12	; 18
    1e62:	0c 94 fb 0f 	jmp	0x1ff6	; 0x1ff6 <__epilogue_restores__>

00001e66 <strnlen_P>:
    1e66:	fc 01       	movw	r30, r24
    1e68:	05 90       	lpm	r0, Z+
    1e6a:	61 50       	subi	r22, 0x01	; 1
    1e6c:	70 40       	sbci	r23, 0x00	; 0
    1e6e:	01 10       	cpse	r0, r1
    1e70:	d8 f7       	brcc	.-10     	; 0x1e68 <strnlen_P+0x2>
    1e72:	80 95       	com	r24
    1e74:	90 95       	com	r25
    1e76:	8e 0f       	add	r24, r30
    1e78:	9f 1f       	adc	r25, r31
    1e7a:	08 95       	ret

00001e7c <strnlen>:
    1e7c:	fc 01       	movw	r30, r24
    1e7e:	61 50       	subi	r22, 0x01	; 1
    1e80:	70 40       	sbci	r23, 0x00	; 0
    1e82:	01 90       	ld	r0, Z+
    1e84:	01 10       	cpse	r0, r1
    1e86:	d8 f7       	brcc	.-10     	; 0x1e7e <strnlen+0x2>
    1e88:	80 95       	com	r24
    1e8a:	90 95       	com	r25
    1e8c:	8e 0f       	add	r24, r30
    1e8e:	9f 1f       	adc	r25, r31
    1e90:	08 95       	ret

00001e92 <fputc>:
    1e92:	0f 93       	push	r16
    1e94:	1f 93       	push	r17
    1e96:	cf 93       	push	r28
    1e98:	df 93       	push	r29
    1e9a:	fb 01       	movw	r30, r22
    1e9c:	23 81       	ldd	r18, Z+3	; 0x03
    1e9e:	21 fd       	sbrc	r18, 1
    1ea0:	03 c0       	rjmp	.+6      	; 0x1ea8 <fputc+0x16>
    1ea2:	8f ef       	ldi	r24, 0xFF	; 255
    1ea4:	9f ef       	ldi	r25, 0xFF	; 255
    1ea6:	28 c0       	rjmp	.+80     	; 0x1ef8 <fputc+0x66>
    1ea8:	22 ff       	sbrs	r18, 2
    1eaa:	16 c0       	rjmp	.+44     	; 0x1ed8 <fputc+0x46>
    1eac:	46 81       	ldd	r20, Z+6	; 0x06
    1eae:	57 81       	ldd	r21, Z+7	; 0x07
    1eb0:	24 81       	ldd	r18, Z+4	; 0x04
    1eb2:	35 81       	ldd	r19, Z+5	; 0x05
    1eb4:	42 17       	cp	r20, r18
    1eb6:	53 07       	cpc	r21, r19
    1eb8:	44 f4       	brge	.+16     	; 0x1eca <fputc+0x38>
    1eba:	a0 81       	ld	r26, Z
    1ebc:	b1 81       	ldd	r27, Z+1	; 0x01
    1ebe:	9d 01       	movw	r18, r26
    1ec0:	2f 5f       	subi	r18, 0xFF	; 255
    1ec2:	3f 4f       	sbci	r19, 0xFF	; 255
    1ec4:	31 83       	std	Z+1, r19	; 0x01
    1ec6:	20 83       	st	Z, r18
    1ec8:	8c 93       	st	X, r24
    1eca:	26 81       	ldd	r18, Z+6	; 0x06
    1ecc:	37 81       	ldd	r19, Z+7	; 0x07
    1ece:	2f 5f       	subi	r18, 0xFF	; 255
    1ed0:	3f 4f       	sbci	r19, 0xFF	; 255
    1ed2:	37 83       	std	Z+7, r19	; 0x07
    1ed4:	26 83       	std	Z+6, r18	; 0x06
    1ed6:	10 c0       	rjmp	.+32     	; 0x1ef8 <fputc+0x66>
    1ed8:	eb 01       	movw	r28, r22
    1eda:	09 2f       	mov	r16, r25
    1edc:	18 2f       	mov	r17, r24
    1ede:	00 84       	ldd	r0, Z+8	; 0x08
    1ee0:	f1 85       	ldd	r31, Z+9	; 0x09
    1ee2:	e0 2d       	mov	r30, r0
    1ee4:	09 95       	icall
    1ee6:	89 2b       	or	r24, r25
    1ee8:	e1 f6       	brne	.-72     	; 0x1ea2 <fputc+0x10>
    1eea:	8e 81       	ldd	r24, Y+6	; 0x06
    1eec:	9f 81       	ldd	r25, Y+7	; 0x07
    1eee:	01 96       	adiw	r24, 0x01	; 1
    1ef0:	9f 83       	std	Y+7, r25	; 0x07
    1ef2:	8e 83       	std	Y+6, r24	; 0x06
    1ef4:	81 2f       	mov	r24, r17
    1ef6:	90 2f       	mov	r25, r16
    1ef8:	df 91       	pop	r29
    1efa:	cf 91       	pop	r28
    1efc:	1f 91       	pop	r17
    1efe:	0f 91       	pop	r16
    1f00:	08 95       	ret

00001f02 <__ultoa_invert>:
    1f02:	fa 01       	movw	r30, r20
    1f04:	aa 27       	eor	r26, r26
    1f06:	28 30       	cpi	r18, 0x08	; 8
    1f08:	51 f1       	breq	.+84     	; 0x1f5e <__ultoa_invert+0x5c>
    1f0a:	20 31       	cpi	r18, 0x10	; 16
    1f0c:	81 f1       	breq	.+96     	; 0x1f6e <__ultoa_invert+0x6c>
    1f0e:	e8 94       	clt
    1f10:	6f 93       	push	r22
    1f12:	6e 7f       	andi	r22, 0xFE	; 254
    1f14:	6e 5f       	subi	r22, 0xFE	; 254
    1f16:	7f 4f       	sbci	r23, 0xFF	; 255
    1f18:	8f 4f       	sbci	r24, 0xFF	; 255
    1f1a:	9f 4f       	sbci	r25, 0xFF	; 255
    1f1c:	af 4f       	sbci	r26, 0xFF	; 255
    1f1e:	b1 e0       	ldi	r27, 0x01	; 1
    1f20:	3e d0       	rcall	.+124    	; 0x1f9e <__ultoa_invert+0x9c>
    1f22:	b4 e0       	ldi	r27, 0x04	; 4
    1f24:	3c d0       	rcall	.+120    	; 0x1f9e <__ultoa_invert+0x9c>
    1f26:	67 0f       	add	r22, r23
    1f28:	78 1f       	adc	r23, r24
    1f2a:	89 1f       	adc	r24, r25
    1f2c:	9a 1f       	adc	r25, r26
    1f2e:	a1 1d       	adc	r26, r1
    1f30:	68 0f       	add	r22, r24
    1f32:	79 1f       	adc	r23, r25
    1f34:	8a 1f       	adc	r24, r26
    1f36:	91 1d       	adc	r25, r1
    1f38:	a1 1d       	adc	r26, r1
    1f3a:	6a 0f       	add	r22, r26
    1f3c:	71 1d       	adc	r23, r1
    1f3e:	81 1d       	adc	r24, r1
    1f40:	91 1d       	adc	r25, r1
    1f42:	a1 1d       	adc	r26, r1
    1f44:	20 d0       	rcall	.+64     	; 0x1f86 <__ultoa_invert+0x84>
    1f46:	09 f4       	brne	.+2      	; 0x1f4a <__ultoa_invert+0x48>
    1f48:	68 94       	set
    1f4a:	3f 91       	pop	r19
    1f4c:	2a e0       	ldi	r18, 0x0A	; 10
    1f4e:	26 9f       	mul	r18, r22
    1f50:	11 24       	eor	r1, r1
    1f52:	30 19       	sub	r19, r0
    1f54:	30 5d       	subi	r19, 0xD0	; 208
    1f56:	31 93       	st	Z+, r19
    1f58:	de f6       	brtc	.-74     	; 0x1f10 <__ultoa_invert+0xe>
    1f5a:	cf 01       	movw	r24, r30
    1f5c:	08 95       	ret
    1f5e:	46 2f       	mov	r20, r22
    1f60:	47 70       	andi	r20, 0x07	; 7
    1f62:	40 5d       	subi	r20, 0xD0	; 208
    1f64:	41 93       	st	Z+, r20
    1f66:	b3 e0       	ldi	r27, 0x03	; 3
    1f68:	0f d0       	rcall	.+30     	; 0x1f88 <__ultoa_invert+0x86>
    1f6a:	c9 f7       	brne	.-14     	; 0x1f5e <__ultoa_invert+0x5c>
    1f6c:	f6 cf       	rjmp	.-20     	; 0x1f5a <__ultoa_invert+0x58>
    1f6e:	46 2f       	mov	r20, r22
    1f70:	4f 70       	andi	r20, 0x0F	; 15
    1f72:	40 5d       	subi	r20, 0xD0	; 208
    1f74:	4a 33       	cpi	r20, 0x3A	; 58
    1f76:	18 f0       	brcs	.+6      	; 0x1f7e <__ultoa_invert+0x7c>
    1f78:	49 5d       	subi	r20, 0xD9	; 217
    1f7a:	31 fd       	sbrc	r19, 1
    1f7c:	40 52       	subi	r20, 0x20	; 32
    1f7e:	41 93       	st	Z+, r20
    1f80:	02 d0       	rcall	.+4      	; 0x1f86 <__ultoa_invert+0x84>
    1f82:	a9 f7       	brne	.-22     	; 0x1f6e <__ultoa_invert+0x6c>
    1f84:	ea cf       	rjmp	.-44     	; 0x1f5a <__ultoa_invert+0x58>
    1f86:	b4 e0       	ldi	r27, 0x04	; 4
    1f88:	a6 95       	lsr	r26
    1f8a:	97 95       	ror	r25
    1f8c:	87 95       	ror	r24
    1f8e:	77 95       	ror	r23
    1f90:	67 95       	ror	r22
    1f92:	ba 95       	dec	r27
    1f94:	c9 f7       	brne	.-14     	; 0x1f88 <__ultoa_invert+0x86>
    1f96:	00 97       	sbiw	r24, 0x00	; 0
    1f98:	61 05       	cpc	r22, r1
    1f9a:	71 05       	cpc	r23, r1
    1f9c:	08 95       	ret
    1f9e:	9b 01       	movw	r18, r22
    1fa0:	ac 01       	movw	r20, r24
    1fa2:	0a 2e       	mov	r0, r26
    1fa4:	06 94       	lsr	r0
    1fa6:	57 95       	ror	r21
    1fa8:	47 95       	ror	r20
    1faa:	37 95       	ror	r19
    1fac:	27 95       	ror	r18
    1fae:	ba 95       	dec	r27
    1fb0:	c9 f7       	brne	.-14     	; 0x1fa4 <__ultoa_invert+0xa2>
    1fb2:	62 0f       	add	r22, r18
    1fb4:	73 1f       	adc	r23, r19
    1fb6:	84 1f       	adc	r24, r20
    1fb8:	95 1f       	adc	r25, r21
    1fba:	a0 1d       	adc	r26, r0
    1fbc:	08 95       	ret

00001fbe <__prologue_saves__>:
    1fbe:	2f 92       	push	r2
    1fc0:	3f 92       	push	r3
    1fc2:	4f 92       	push	r4
    1fc4:	5f 92       	push	r5
    1fc6:	6f 92       	push	r6
    1fc8:	7f 92       	push	r7
    1fca:	8f 92       	push	r8
    1fcc:	9f 92       	push	r9
    1fce:	af 92       	push	r10
    1fd0:	bf 92       	push	r11
    1fd2:	cf 92       	push	r12
    1fd4:	df 92       	push	r13
    1fd6:	ef 92       	push	r14
    1fd8:	ff 92       	push	r15
    1fda:	0f 93       	push	r16
    1fdc:	1f 93       	push	r17
    1fde:	cf 93       	push	r28
    1fe0:	df 93       	push	r29
    1fe2:	cd b7       	in	r28, 0x3d	; 61
    1fe4:	de b7       	in	r29, 0x3e	; 62
    1fe6:	ca 1b       	sub	r28, r26
    1fe8:	db 0b       	sbc	r29, r27
    1fea:	0f b6       	in	r0, 0x3f	; 63
    1fec:	f8 94       	cli
    1fee:	de bf       	out	0x3e, r29	; 62
    1ff0:	0f be       	out	0x3f, r0	; 63
    1ff2:	cd bf       	out	0x3d, r28	; 61
    1ff4:	09 94       	ijmp

00001ff6 <__epilogue_restores__>:
    1ff6:	2a 88       	ldd	r2, Y+18	; 0x12
    1ff8:	39 88       	ldd	r3, Y+17	; 0x11
    1ffa:	48 88       	ldd	r4, Y+16	; 0x10
    1ffc:	5f 84       	ldd	r5, Y+15	; 0x0f
    1ffe:	6e 84       	ldd	r6, Y+14	; 0x0e
    2000:	7d 84       	ldd	r7, Y+13	; 0x0d
    2002:	8c 84       	ldd	r8, Y+12	; 0x0c
    2004:	9b 84       	ldd	r9, Y+11	; 0x0b
    2006:	aa 84       	ldd	r10, Y+10	; 0x0a
    2008:	b9 84       	ldd	r11, Y+9	; 0x09
    200a:	c8 84       	ldd	r12, Y+8	; 0x08
    200c:	df 80       	ldd	r13, Y+7	; 0x07
    200e:	ee 80       	ldd	r14, Y+6	; 0x06
    2010:	fd 80       	ldd	r15, Y+5	; 0x05
    2012:	0c 81       	ldd	r16, Y+4	; 0x04
    2014:	1b 81       	ldd	r17, Y+3	; 0x03
    2016:	aa 81       	ldd	r26, Y+2	; 0x02
    2018:	b9 81       	ldd	r27, Y+1	; 0x01
    201a:	ce 0f       	add	r28, r30
    201c:	d1 1d       	adc	r29, r1
    201e:	0f b6       	in	r0, 0x3f	; 63
    2020:	f8 94       	cli
    2022:	de bf       	out	0x3e, r29	; 62
    2024:	0f be       	out	0x3f, r0	; 63
    2026:	cd bf       	out	0x3d, r28	; 61
    2028:	ed 01       	movw	r28, r26
    202a:	08 95       	ret

0000202c <_exit>:
    202c:	f8 94       	cli

0000202e <__stop_program>:
    202e:	ff cf       	rjmp	.-2      	; 0x202e <__stop_program>
